Certificate:
    Data:
        Version: 3 (0x2)
        Serial Number: 4268 (0x10ac)
        Signature Algorithm: ecdsa-with-SHA256
        Issuer: CN=sros2testCA
        Validity
            Not Before: Aug 13 08:35:28 2020 GMT
            Not After : Aug 11 08:35:28 2030 GMT
        Subject: CN=/blurfilter
        Subject Public Key Info:
            Public Key Algorithm: id-ecPublicKey
                Public-Key: (256 bit)
                pub:
                    04:aa:38:d1:80:5a:ad:c7:2e:62:03:cd:b5:e5:6a:
                    d0:42:6f:5e:c4:f2:d9:b5:68:0a:72:7d:13:c3:1d:
                    38:66:f9:6b:1b:01:5f:0c:31:83:1d:ea:f3:1a:95:
                    1a:eb:94:5a:41:c4:99:9a:a3:04:12:b3:71:f9:f2:
                    67:70:36:f7:0e
                ASN1 OID: prime256v1
                NIST CURVE: P-256
        X509v3 extensions:
            X509v3 Basic Constraints: 
                CA:FALSE
    Signature Algorithm: ecdsa-with-SHA256
         30:44:02:20:57:b7:97:53:59:b0:f1:9b:10:72:6d:0b:29:09:
         82:47:14:c8:f7:6e:1c:41:b3:80:6b:f8:7d:87:a3:5e:87:8f:
         02:20:32:66:e4:77:9b:f6:13:d0:75:ab:56:0a:15:6c:89:7e:
         b2:ca:6e:32:b0:9d:cf:1a:70:c8:58:58:f9:91:30:62
-----BEGIN CERTIFICATE-----
MIIBJzCBz6ADAgECAgIQrDAKBggqhkjOPQQDAjAWMRQwEgYDVQQDDAtzcm9zMnRl
c3RDQTAeFw0yMDA4MTMwODM1MjhaFw0zMDA4MTEwODM1MjhaMBYxFDASBgNVBAMM
Cy9ibHVyZmlsdGVyMFkwEwYHKoZIzj0CAQYIKoZIzj0DAQcDQgAEqjjRgFqtxy5i
A8215WrQQm9exPLZtWgKcn0Twx04ZvlrGwFfDDGDHerzGpUa65RaQcSZmqMEErNx
+fJncDb3DqMNMAswCQYDVR0TBAIwADAKBggqhkjOPQQDAgNHADBEAiBXt5dTWbDx
mxBybQspCYJHFMj3bhxBs4Br+H2Ho16HjwIgMmbkd5v2E9B1q1YKFWyJfrLKbjKw
nc8acMhYWPmRMGI=
-----END CERTIFICATE-----
