Certificate:
    Data:
        Version: 3 (0x2)
        Serial Number: 4100 (0x1004)
        Signature Algorithm: ecdsa-with-SHA256
        Issuer: CN=sros2testCA
        Validity
            Not Before: Nov 11 10:08:52 2019 GMT
            Not After : Nov  8 10:08:52 2029 GMT
        Subject: CN=/showimage
        Subject Public Key Info:
            Public Key Algorithm: id-ecPublicKey
                Public-Key: (256 bit)
                pub:
                    04:37:22:8b:f2:88:5a:58:b1:20:df:34:80:16:f6:
                    1b:56:b1:c0:6c:45:aa:4a:f1:85:a5:19:65:32:0b:
                    8d:12:21:3a:2d:1b:31:77:65:cf:0a:f8:aa:13:8f:
                    c9:17:2a:86:ef:7e:ad:ce:96:bc:1a:df:cb:81:87:
                    49:72:0b:7c:05
                ASN1 OID: prime256v1
                NIST CURVE: P-256
        X509v3 extensions:
            X509v3 Basic Constraints: 
                CA:FALSE
    Signature Algorithm: ecdsa-with-SHA256
         30:45:02:21:00:c5:bd:a3:cb:f0:fd:3a:ca:e2:33:7e:99:68:
         aa:7b:17:7e:51:97:93:d4:c7:3c:f1:28:9f:bb:c3:01:f1:9f:
         a1:02:20:16:1a:a5:bd:19:a2:9c:02:bc:de:17:c0:79:64:24:
         df:c5:48:57:6b:e6:20:61:16:db:35:e4:bd:c9:36:69:36
-----BEGIN CERTIFICATE-----
MIIBJzCBzqADAgECAgIQBDAKBggqhkjOPQQDAjAWMRQwEgYDVQQDDAtzcm9zMnRl
c3RDQTAeFw0xOTExMTExMDA4NTJaFw0yOTExMDgxMDA4NTJaMBUxEzARBgNVBAMM
Ci9zaG93aW1hZ2UwWTATBgcqhkjOPQIBBggqhkjOPQMBBwNCAAQ3IovyiFpYsSDf
NIAW9htWscBsRapK8YWlGWUyC40SITotGzF3Zc8K+KoTj8kXKobvfq3Olrwa38uB
h0lyC3wFow0wCzAJBgNVHRMEAjAAMAoGCCqGSM49BAMCA0gAMEUCIQDFvaPL8P06
yuIzfploqnsXflGXk9THPPEon7vDAfGfoQIgFhqlvRminAK83hfAeWQk38VIV2vm
IGEW2zXkvck2aTY=
-----END CERTIFICATE-----
