Certificate:
    Data:
        Version: 3 (0x2)
        Serial Number: 4097 (0x1001)
        Signature Algorithm: ecdsa-with-SHA256
        Issuer: CN=sros2testCA
        Validity
            Not Before: Aug 24 10:50:12 2019 GMT
            Not After : Aug 21 10:50:12 2029 GMT
        Subject: CN=/listener
        Subject Public Key Info:
            Public Key Algorithm: id-ecPublicKey
                Public-Key: (256 bit)
                pub:
                    04:70:4d:8c:c8:52:ec:83:d8:1a:32:c4:4b:9f:48:
                    2f:22:c3:d9:b6:5f:8c:04:77:98:0b:4d:8d:a9:da:
                    06:6a:20:df:d7:46:8e:89:02:d4:2c:25:9a:52:02:
                    ab:df:72:1a:84:a4:a6:92:df:34:74:28:5f:41:7d:
                    eb:c8:ee:3d:e3
                ASN1 OID: prime256v1
                NIST CURVE: P-256
        X509v3 extensions:
            X509v3 Basic Constraints: 
                CA:FALSE
    Signature Algorithm: ecdsa-with-SHA256
         30:45:02:20:00:ec:ff:ae:ff:3c:e4:28:ce:6c:b6:c3:83:57:
         26:03:89:aa:71:8a:98:f1:19:08:80:f1:15:b7:5b:e1:b1:d9:
         02:21:00:82:6e:c8:66:12:8f:8d:6d:61:25:67:63:88:7e:89:
         42:ca:12:57:fa:2d:e3:b1:c9:72:98:25:08:59:4c:46:d3
-----BEGIN CERTIFICATE-----
MIIBJjCBzaADAgECAgIQATAKBggqhkjOPQQDAjAWMRQwEgYDVQQDDAtzcm9zMnRl
c3RDQTAeFw0xOTA4MjQxMDUwMTJaFw0yOTA4MjExMDUwMTJaMBQxEjAQBgNVBAMM
CS9saXN0ZW5lcjBZMBMGByqGSM49AgEGCCqGSM49AwEHA0IABHBNjMhS7IPYGjLE
S59ILyLD2bZfjAR3mAtNjanaBmog39dGjokC1CwlmlICq99yGoSkppLfNHQoX0F9
68juPeOjDTALMAkGA1UdEwQCMAAwCgYIKoZIzj0EAwIDSAAwRQIgAOz/rv885CjO
bLbDg1cmA4mqcYqY8RkIgPEVt1vhsdkCIQCCbshmEo+NbWElZ2OIfolCyhJX+i3j
sclymCUIWUxG0w==
-----END CERTIFICATE-----
