Certificate:
    Data:
        Version: 3 (0x2)
        Serial Number: 4096 (0x1000)
        Signature Algorithm: ecdsa-with-SHA256
        Issuer: CN=sros2testCA
        Validity
            Not Before: Jun 25 06:29:30 2019 GMT
            Not After : Jun 22 06:29:30 2029 GMT
        Subject: CN=/talker
        Subject Public Key Info:
            Public Key Algorithm: id-ecPublicKey
                Public-Key: (256 bit)
                pub:
                    04:47:07:23:fb:2c:ef:21:4f:87:9f:1e:5a:74:ac:
                    41:c7:20:fc:7c:69:67:a1:12:d8:41:3e:08:df:79:
                    00:20:06:97:05:15:1d:fc:a6:a8:72:b4:33:e8:21:
                    1d:a1:3a:4b:93:2f:0d:9e:13:53:83:33:38:1a:61:
                    8a:08:11:78:a9
                ASN1 OID: prime256v1
                NIST CURVE: P-256
        X509v3 extensions:
            X509v3 Basic Constraints: 
                CA:FALSE
    Signature Algorithm: ecdsa-with-SHA256
         30:45:02:20:73:aa:bb:ad:08:3e:11:f4:a5:82:ab:d3:19:77:
         93:23:aa:4a:c0:36:c9:4a:dc:7c:7f:1f:3a:af:17:fe:cd:1e:
         02:21:00:b8:b1:5c:23:65:25:a4:4c:75:2a:9b:b6:2a:5c:c9:
         3b:4d:cb:f1:42:d9:52:d6:c9:32:6a:8e:58:b6:a6:53:4e
-----BEGIN CERTIFICATE-----
MIIBJDCBy6ADAgECAgIQADAKBggqhkjOPQQDAjAWMRQwEgYDVQQDDAtzcm9zMnRl
c3RDQTAeFw0xOTA2MjUwNjI5MzBaFw0yOTA2MjIwNjI5MzBaMBIxEDAOBgNVBAMM
By90YWxrZXIwWTATBgcqhkjOPQIBBggqhkjOPQMBBwNCAARHByP7LO8hT4efHlp0
rEHHIPx8aWehEthBPgjfeQAgBpcFFR38pqhytDPoIR2hOkuTLw2eE1ODMzgaYYoI
EXipow0wCzAJBgNVHRMEAjAAMAoGCCqGSM49BAMCA0gAMEUCIHOqu60IPhH0pYKr
0xl3kyOqSsA2yUrcfH8fOq8X/s0eAiEAuLFcI2UlpEx1Kpu2KlzJO03L8ULZUtbJ
MmqOWLamU04=
-----END CERTIFICATE-----
