Certificate:
    Data:
        Version: 3 (0x2)
        Serial Number: 4098 (0x1002)
        Signature Algorithm: ecdsa-with-SHA256
        Issuer: CN=sros2testCA
        Validity
            Not Before: Nov 11 10:08:31 2019 GMT
            Not After : Nov  8 10:08:31 2029 GMT
        Subject: CN=/camera
        Subject Public Key Info:
            Public Key Algorithm: id-ecPublicKey
                Public-Key: (256 bit)
                pub:
                    04:27:e5:56:8f:e1:d6:89:fa:46:4a:e7:88:d5:1b:
                    43:ae:fc:c3:f0:f5:21:d9:04:5a:9c:b0:7a:10:0b:
                    a7:ce:98:f8:e2:23:2b:74:37:42:92:a4:87:4a:e4:
                    f7:05:cf:8e:3a:38:3c:f3:24:14:24:6c:19:e6:d1:
                    f1:92:c9:a6:2e
                ASN1 OID: prime256v1
                NIST CURVE: P-256
        X509v3 extensions:
            X509v3 Basic Constraints: 
                CA:FALSE
    Signature Algorithm: ecdsa-with-SHA256
         30:44:02:20:69:4e:57:5d:dd:1e:fe:0e:f4:2b:60:03:ce:ff:
         37:fd:9a:05:95:79:15:42:bc:19:27:60:f0:3a:54:e2:1b:5b:
         02:20:22:9f:15:f4:cf:73:e3:0b:ec:e1:b2:6e:ee:ff:29:3f:
         d5:50:21:01:13:53:bf:2a:ac:e4:c3:77:17:da:d0:9e
-----BEGIN CERTIFICATE-----
MIIBIzCBy6ADAgECAgIQAjAKBggqhkjOPQQDAjAWMRQwEgYDVQQDDAtzcm9zMnRl
c3RDQTAeFw0xOTExMTExMDA4MzFaFw0yOTExMDgxMDA4MzFaMBIxEDAOBgNVBAMM
By9jYW1lcmEwWTATBgcqhkjOPQIBBggqhkjOPQMBBwNCAAQn5VaP4daJ+kZK54jV
G0Ou/MPw9SHZBFqcsHoQC6fOmPjiIyt0N0KSpIdK5PcFz446ODzzJBQkbBnm0fGS
yaYuow0wCzAJBgNVHRMEAjAAMAoGCCqGSM49BAMCA0cAMEQCIGlOV13dHv4O9Ctg
A87/N/2aBZV5FUK8GSdg8DpU4htbAiAinxX0z3PjC+zhsm7u/yk/1VAhARNTvyqs
5MN3F9rQng==
-----END CERTIFICATE-----
