Certificate:
    Data:
        Version: 3 (0x2)
        Serial Number: 4099 (0x1003)
        Signature Algorithm: ecdsa-with-SHA256
        Issuer: CN=sros2testCA
        Validity
            Not Before: Nov 11 10:08:39 2019 GMT
            Not After : Nov  8 10:08:39 2029 GMT
        Subject: CN=/filterapp
        Subject Public Key Info:
            Public Key Algorithm: id-ecPublicKey
                Public-Key: (256 bit)
                pub:
                    04:a9:92:28:63:26:a1:97:bc:8a:e0:ea:13:b9:57:
                    87:9d:8f:05:80:99:e8:70:22:ff:cc:75:08:a8:29:
                    7f:c3:57:1e:59:e0:b2:cf:ed:f9:0c:03:f1:8b:6e:
                    a2:a9:8a:99:ea:13:ea:07:22:14:41:56:ed:cd:9c:
                    7b:32:c4:f6:52
                ASN1 OID: prime256v1
                NIST CURVE: P-256
        X509v3 extensions:
            X509v3 Basic Constraints: 
                CA:FALSE
    Signature Algorithm: ecdsa-with-SHA256
         30:45:02:20:60:3d:2c:d7:28:93:89:a9:55:7b:42:d0:c9:d7:
         87:13:fe:c7:9f:76:ec:3d:27:60:3a:6c:b2:bb:5f:d1:8c:1a:
         02:21:00:a0:4d:d0:c9:31:08:3c:cc:86:88:f8:2e:8a:15:49:
         f1:47:08:74:7d:17:b5:1c:40:2b:d7:7b:bd:ac:de:3b:e1
-----BEGIN CERTIFICATE-----
MIIBJzCBzqADAgECAgIQAzAKBggqhkjOPQQDAjAWMRQwEgYDVQQDDAtzcm9zMnRl
c3RDQTAeFw0xOTExMTExMDA4MzlaFw0yOTExMDgxMDA4MzlaMBUxEzARBgNVBAMM
Ci9maWx0ZXJhcHAwWTATBgcqhkjOPQIBBggqhkjOPQMBBwNCAASpkihjJqGXvIrg
6hO5V4edjwWAmehwIv/MdQioKX/DVx5Z4LLP7fkMA/GLbqKpipnqE+oHIhRBVu3N
nHsyxPZSow0wCzAJBgNVHRMEAjAAMAoGCCqGSM49BAMCA0gAMEUCIGA9LNcok4mp
VXtC0MnXhxP+x5927D0nYDpssrtf0YwaAiEAoE3QyTEIPMyGiPguihVJ8UcIdH0X
tRxAK9d7vazeO+E=
-----END CERTIFICATE-----
