Certificate:
    Data:
        Version: 3 (0x2)
        Serial Number: 4101 (0x1005)
        Signature Algorithm: ecdsa-with-SHA256
        Issuer: CN=sros2testCA
        Validity
            Not Before: Nov 11 10:13:50 2019 GMT
            Not After : Nov  8 10:13:50 2029 GMT
        Subject: CN=/judgetest
        Subject Public Key Info:
            Public Key Algorithm: id-ecPublicKey
                Public-Key: (256 bit)
                pub:
                    04:f6:e4:3f:d3:b6:3c:37:cd:b0:d9:f5:8f:f8:45:
                    b1:70:8c:e2:ec:06:25:23:73:35:e1:f1:1b:ed:7e:
                    92:7f:6f:20:f5:c3:d5:61:77:f8:ad:eb:b6:57:30:
                    da:55:de:56:33:ae:e8:27:1d:05:37:d7:7a:67:03:
                    d0:b7:b9:22:55
                ASN1 OID: prime256v1
                NIST CURVE: P-256
        X509v3 extensions:
            X509v3 Basic Constraints: 
                CA:FALSE
    Signature Algorithm: ecdsa-with-SHA256
         30:44:02:20:15:ba:ed:73:28:53:5d:bb:c4:84:16:63:be:79:
         dc:be:31:c2:ab:7c:c1:f8:11:70:05:b0:0f:45:89:c2:d0:fd:
         02:20:5f:fc:e0:f1:cc:64:b3:10:59:c5:ea:9e:23:4a:21:f3:
         a4:7d:50:62:5d:13:6a:bd:19:df:6a:bf:e2:a0:17:21
-----BEGIN CERTIFICATE-----
MIIBJjCBzqADAgECAgIQBTAKBggqhkjOPQQDAjAWMRQwEgYDVQQDDAtzcm9zMnRl
c3RDQTAeFw0xOTExMTExMDEzNTBaFw0yOTExMDgxMDEzNTBaMBUxEzARBgNVBAMM
Ci9qdWRnZXRlc3QwWTATBgcqhkjOPQIBBggqhkjOPQMBBwNCAAT25D/Ttjw3zbDZ
9Y/4RbFwjOLsBiUjczXh8RvtfpJ/byD1w9Vhd/it67ZXMNpV3lYzrugnHQU313pn
A9C3uSJVow0wCzAJBgNVHRMEAjAAMAoGCCqGSM49BAMCA0cAMEQCIBW67XMoU127
xIQWY7553L4xwqt8wfgRcAWwD0WJwtD9AiBf/ODxzGSzEFnF6p4jSiHzpH1QYl0T
ar0Z32q/4qAXIQ==
-----END CERTIFICATE-----
