Certificate:
    Data:
        Version: 3 (0x2)
        Serial Number: 4102 (0x1006)
        Signature Algorithm: ecdsa-with-SHA256
        Issuer: CN=sros2testCA
        Validity
            Not Before: Nov 19 05:01:31 2019 GMT
            Not After : Nov 16 05:01:31 2029 GMT
        Subject: CN=/_ros2cli_publisher_std_msgs_String
        Subject Public Key Info:
            Public Key Algorithm: id-ecPublicKey
                Public-Key: (256 bit)
                pub:
                    04:9e:6d:4a:0e:19:09:bd:a1:3f:48:60:1c:83:98:
                    7f:9e:d0:55:45:d7:40:90:62:f2:a0:c1:10:7f:81:
                    e5:ba:e6:d5:73:f2:7f:54:bc:c3:1c:06:4c:b0:33:
                    2c:7a:ab:e4:4a:27:eb:db:e1:78:59:5a:d2:e9:b3:
                    05:2e:6c:5e:c6
                ASN1 OID: prime256v1
                NIST CURVE: P-256
        X509v3 extensions:
            X509v3 Basic Constraints: 
                CA:FALSE
    Signature Algorithm: ecdsa-with-SHA256
         30:45:02:20:4f:34:e2:b4:6c:cb:62:ea:46:a5:36:8a:9c:7d:
         5c:8a:34:af:45:4f:d0:de:2a:de:97:60:29:fd:c3:5c:1f:96:
         02:21:00:82:8f:3d:a2:f8:8d:5a:87:2d:4c:10:12:75:49:fa:
         8d:06:ce:27:24:ff:8f:81:79:34:ba:17:68:85:9e:fd:e6
-----BEGIN CERTIFICATE-----
MIIBQDCB56ADAgECAgIQBjAKBggqhkjOPQQDAjAWMRQwEgYDVQQDDAtzcm9zMnRl
c3RDQTAeFw0xOTExMTkwNTAxMzFaFw0yOTExMTYwNTAxMzFaMC4xLDAqBgNVBAMM
Iy9fcm9zMmNsaV9wdWJsaXNoZXJfc3RkX21zZ3NfU3RyaW5nMFkwEwYHKoZIzj0C
AQYIKoZIzj0DAQcDQgAEnm1KDhkJvaE/SGAcg5h/ntBVRddAkGLyoMEQf4HluubV
c/J/VLzDHAZMsDMseqvkSifr2+F4WVrS6bMFLmxexqMNMAswCQYDVR0TBAIwADAK
BggqhkjOPQQDAgNIADBFAiBPNOK0bMti6kalNoqcfVyKNK9FT9DeKt6XYCn9w1wf
lgIhAIKPPaL4jVqHLUwQEnVJ+o0Gzick/4+BeTS6F2iFnv3m
-----END CERTIFICATE-----
