Certificate:
    Data:
        Version: 3 (0x2)
        Serial Number: 4103 (0x1007)
        Signature Algorithm: ecdsa-with-SHA256
        Issuer: CN=sros2testCA
        Validity
            Not Before: Nov 19 13:21:37 2019 GMT
            Not After : Nov 16 13:21:37 2029 GMT
        Subject: CN=/flowcontroller
        Subject Public Key Info:
            Public Key Algorithm: id-ecPublicKey
                Public-Key: (256 bit)
                pub:
                    04:fb:10:9c:b7:6c:27:46:c5:3a:89:e9:91:46:a0:
                    0e:4c:f6:ab:2d:a6:b8:60:ad:1b:05:60:00:6b:01:
                    7b:a1:bc:af:52:7a:8b:d4:16:d6:a9:36:97:83:1e:
                    01:e4:2e:2f:60:8b:c8:99:82:81:48:0a:57:4f:21:
                    dd:65:de:fe:ce
                ASN1 OID: prime256v1
                NIST CURVE: P-256
        X509v3 extensions:
            X509v3 Basic Constraints: 
                CA:FALSE
    Signature Algorithm: ecdsa-with-SHA256
         30:46:02:21:00:ce:8f:ce:15:e8:6c:0f:a9:53:2c:71:eb:39:
         e4:be:73:7e:68:dc:02:97:a5:2e:aa:ca:06:cc:78:c4:a3:b3:
         e4:02:21:00:e2:0b:97:e2:d0:1f:ed:ce:13:ec:5b:89:18:18:
         f3:cf:4a:27:84:a7:e3:f2:df:46:f3:d6:50:a7:fd:ac:f2:f7
-----BEGIN CERTIFICATE-----
MIIBLTCB06ADAgECAgIQBzAKBggqhkjOPQQDAjAWMRQwEgYDVQQDDAtzcm9zMnRl
c3RDQTAeFw0xOTExMTkxMzIxMzdaFw0yOTExMTYxMzIxMzdaMBoxGDAWBgNVBAMM
Dy9mbG93Y29udHJvbGxlcjBZMBMGByqGSM49AgEGCCqGSM49AwEHA0IABPsQnLds
J0bFOonpkUagDkz2qy2muGCtGwVgAGsBe6G8r1J6i9QW1qk2l4MeAeQuL2CLyJmC
gUgKV08h3WXe/s6jDTALMAkGA1UdEwQCMAAwCgYIKoZIzj0EAwIDSQAwRgIhAM6P
zhXobA+pUyxx6znkvnN+aNwCl6UuqsoGzHjEo7PkAiEA4guX4tAf7c4T7FuJGBjz
z0onhKfj8t9G89ZQp/2s8vc=
-----END CERTIFICATE-----
