Certificate:
    Data:
        Version: 3 (0x2)
        Serial Number: 4104 (0x1008)
        Signature Algorithm: ecdsa-with-SHA256
        Issuer: CN=sros2testCA
        Validity
            Not Before: Nov 20 17:20:47 2019 GMT
            Not After : Nov 17 17:20:47 2029 GMT
        Subject: CN=/sensor_msgs_image
        Subject Public Key Info:
            Public Key Algorithm: id-ecPublicKey
                Public-Key: (256 bit)
                pub:
                    04:67:ca:2c:b7:61:9b:a1:5f:2f:93:b8:fd:f4:95:
                    21:e8:b4:b1:8b:5c:0e:46:37:b1:6b:7c:e6:b0:9b:
                    54:4e:30:56:c7:a4:70:5d:0a:5c:86:40:96:77:da:
                    53:07:2e:f0:62:cf:6e:05:ef:41:83:d9:53:bd:e0:
                    45:aa:40:a8:9c
                ASN1 OID: prime256v1
                NIST CURVE: P-256
        X509v3 extensions:
            X509v3 Basic Constraints: 
                CA:FALSE
    Signature Algorithm: ecdsa-with-SHA256
         30:46:02:21:00:bd:d8:86:8c:08:d5:8e:f0:1a:84:e3:5a:70:
         06:14:a8:a6:c9:e2:75:6e:41:3e:75:5e:0e:cc:76:91:f2:59:
         b1:02:21:00:c5:f8:8f:d1:3c:6c:b1:02:0c:ff:5e:0c:67:71:
         75:1d:3d:a3:86:d4:7b:81:e9:aa:f4:c3:ba:29:75:23:b7:da
-----BEGIN CERTIFICATE-----
MIIBMDCB1qADAgECAgIQCDAKBggqhkjOPQQDAjAWMRQwEgYDVQQDDAtzcm9zMnRl
c3RDQTAeFw0xOTExMjAxNzIwNDdaFw0yOTExMTcxNzIwNDdaMB0xGzAZBgNVBAMM
Ei9zZW5zb3JfbXNnc19pbWFnZTBZMBMGByqGSM49AgEGCCqGSM49AwEHA0IABGfK
LLdhm6FfL5O4/fSVIei0sYtcDkY3sWt85rCbVE4wVsekcF0KXIZAlnfaUwcu8GLP
bgXvQYPZU73gRapAqJyjDTALMAkGA1UdEwQCMAAwCgYIKoZIzj0EAwIDSQAwRgIh
AL3YhowI1Y7wGoTjWnAGFKimyeJ1bkE+dV4OzHaR8lmxAiEAxfiP0TxssQIM/14M
Z3F1HT2jhtR7gemq9MO6KXUjt9o=
-----END CERTIFICATE-----
