Certificate:
    Data:
        Version: 3 (0x2)
        Serial Number: 4105 (0x1009)
        Signature Algorithm: ecdsa-with-SHA256
        Issuer: CN=sros2testCA
        Validity
            Not Before: Nov 21 03:27:19 2019 GMT
            Not After : Nov 18 03:27:19 2029 GMT
        Subject: CN=/sensor_msgs_image_tmp1
        Subject Public Key Info:
            Public Key Algorithm: id-ecPublicKey
                Public-Key: (256 bit)
                pub:
                    04:49:88:f9:67:c7:d1:6d:88:98:c9:2b:39:58:18:
                    22:f3:a7:07:a0:ff:66:a4:f5:1d:51:c4:f1:37:78:
                    92:f0:53:5d:58:a7:4b:e6:a0:db:20:54:fb:81:9f:
                    3a:9c:09:45:d9:ca:6a:cb:48:4a:ec:00:90:fe:60:
                    5d:84:3b:56:06
                ASN1 OID: prime256v1
                NIST CURVE: P-256
        X509v3 extensions:
            X509v3 Basic Constraints: 
                CA:FALSE
    Signature Algorithm: ecdsa-with-SHA256
         30:46:02:21:00:aa:fa:f8:0a:35:d8:ef:73:d2:87:a0:a8:0b:
         04:dc:7a:fa:52:8b:f7:16:cc:ce:79:c0:a0:04:b4:64:87:09:
         06:02:21:00:c9:84:cd:77:cf:77:99:d7:52:fb:b0:d6:a6:f0:
         97:88:b8:56:c7:cd:83:1d:57:8d:54:d1:7f:15:af:80:8c:a0
-----BEGIN CERTIFICATE-----
MIIBNTCB26ADAgECAgIQCTAKBggqhkjOPQQDAjAWMRQwEgYDVQQDDAtzcm9zMnRl
c3RDQTAeFw0xOTExMjEwMzI3MTlaFw0yOTExMTgwMzI3MTlaMCIxIDAeBgNVBAMM
Fy9zZW5zb3JfbXNnc19pbWFnZV90bXAxMFkwEwYHKoZIzj0CAQYIKoZIzj0DAQcD
QgAESYj5Z8fRbYiYySs5WBgi86cHoP9mpPUdUcTxN3iS8FNdWKdL5qDbIFT7gZ86
nAlF2cpqy0hK7ACQ/mBdhDtWBqMNMAswCQYDVR0TBAIwADAKBggqhkjOPQQDAgNJ
ADBGAiEAqvr4CjXY73PSh6CoCwTcevpSi/cWzM55wKAEtGSHCQYCIQDJhM13z3eZ
11L7sNam8JeIuFbHzYMdV41U0X8Vr4CMoA==
-----END CERTIFICATE-----
