Certificate:
    Data:
        Version: 3 (0x2)
        Serial Number: 4106 (0x100a)
        Signature Algorithm: ecdsa-with-SHA256
        Issuer: CN=sros2testCA
        Validity
            Not Before: Nov 21 03:34:38 2019 GMT
            Not After : Nov 18 03:34:38 2029 GMT
        Subject: CN=/temp1
        Subject Public Key Info:
            Public Key Algorithm: id-ecPublicKey
                Public-Key: (256 bit)
                pub:
                    04:6d:3d:25:5c:8f:7b:45:1b:37:cf:9a:40:e4:93:
                    f3:4e:bf:b5:0d:d5:bd:a2:35:71:09:e9:08:44:8a:
                    c7:95:55:3e:dc:d1:4d:59:be:80:d1:8f:87:c1:fa:
                    58:81:3c:85:ae:98:ea:10:24:ae:2b:c4:35:1e:7f:
                    f3:4b:78:df:37
                ASN1 OID: prime256v1
                NIST CURVE: P-256
        X509v3 extensions:
            X509v3 Basic Constraints: 
                CA:FALSE
    Signature Algorithm: ecdsa-with-SHA256
         30:44:02:20:2f:86:72:da:c1:18:05:0d:19:02:fd:eb:1f:ef:
         50:cf:98:e3:5c:f2:c0:c3:26:a5:96:34:52:a7:f7:6c:f2:22:
         02:20:14:49:36:d6:51:b7:e1:06:e2:88:0c:15:23:6e:d5:31:
         ab:32:1d:73:42:fa:d9:78:a5:15:7a:09:14:ba:ec:8b
-----BEGIN CERTIFICATE-----
MIIBIjCByqADAgECAgIQCjAKBggqhkjOPQQDAjAWMRQwEgYDVQQDDAtzcm9zMnRl
c3RDQTAeFw0xOTExMjEwMzM0MzhaFw0yOTExMTgwMzM0MzhaMBExDzANBgNVBAMM
Bi90ZW1wMTBZMBMGByqGSM49AgEGCCqGSM49AwEHA0IABG09JVyPe0UbN8+aQOST
806/tQ3VvaI1cQnpCESKx5VVPtzRTVm+gNGPh8H6WIE8ha6Y6hAkrivENR5/80t4
3zejDTALMAkGA1UdEwQCMAAwCgYIKoZIzj0EAwIDRwAwRAIgL4Zy2sEYBQ0ZAv3r
H+9Qz5jjXPLAwyalljRSp/ds8iICIBRJNtZRt+EG4ogMFSNu1TGrMh1zQvrZeKUV
egkUuuyL
-----END CERTIFICATE-----
