Certificate:
    Data:
        Version: 3 (0x2)
        Serial Number: 4107 (0x100b)
        Signature Algorithm: ecdsa-with-SHA256
        Issuer: CN=sros2testCA
        Validity
            Not Before: Nov 21 03:57:36 2019 GMT
            Not After : Nov 18 03:57:36 2029 GMT
        Subject: CN=/sensor_msgs_image_tmp1
        Subject Public Key Info:
            Public Key Algorithm: id-ecPublicKey
                Public-Key: (256 bit)
                pub:
                    04:38:58:05:1e:c9:2b:8d:e7:72:f2:c0:a0:0c:25:
                    f7:61:dc:52:34:45:e6:b1:24:b9:d4:c9:15:a5:f5:
                    44:86:3b:cc:c3:3e:8d:00:ca:0b:1a:0f:c8:a0:6b:
                    63:60:bf:0d:68:c6:37:46:e7:cf:9c:38:a4:07:d8:
                    bb:e2:f4:a0:b5
                ASN1 OID: prime256v1
                NIST CURVE: P-256
        X509v3 extensions:
            X509v3 Basic Constraints: 
                CA:FALSE
    Signature Algorithm: ecdsa-with-SHA256
         30:46:02:21:00:f9:ea:7d:81:27:fd:dc:3b:c9:0e:27:5d:12:
         3d:cf:b2:d3:af:8f:3c:25:71:12:11:45:c8:3c:b2:0a:bb:3a:
         dc:02:21:00:9b:e2:fe:b0:81:75:fc:85:4e:d7:c7:06:19:88:
         40:77:0c:50:e6:44:51:2b:df:a3:c2:b5:7f:91:5b:00:7c:e9
-----BEGIN CERTIFICATE-----
MIIBNTCB26ADAgECAgIQCzAKBggqhkjOPQQDAjAWMRQwEgYDVQQDDAtzcm9zMnRl
c3RDQTAeFw0xOTExMjEwMzU3MzZaFw0yOTExMTgwMzU3MzZaMCIxIDAeBgNVBAMM
Fy9zZW5zb3JfbXNnc19pbWFnZV90bXAxMFkwEwYHKoZIzj0CAQYIKoZIzj0DAQcD
QgAEOFgFHskrjedy8sCgDCX3YdxSNEXmsSS51MkVpfVEhjvMwz6NAMoLGg/IoGtj
YL8NaMY3RufPnDikB9i74vSgtaMNMAswCQYDVR0TBAIwADAKBggqhkjOPQQDAgNJ
ADBGAiEA+ep9gSf93DvJDiddEj3PstOvjzwlcRIRRcg8sgq7OtwCIQCb4v6wgXX8
hU7XxwYZiEB3DFDmRFEr36PCtX+RWwB86Q==
-----END CERTIFICATE-----
