Certificate:
    Data:
        Version: 3 (0x2)
        Serial Number: 4108 (0x100c)
        Signature Algorithm: ecdsa-with-SHA256
        Issuer: CN=sros2testCA
        Validity
            Not Before: Nov 21 04:14:20 2019 GMT
            Not After : Nov 18 04:14:20 2029 GMT
        Subject: CN=/sensor_msgs_image_tmp1
        Subject Public Key Info:
            Public Key Algorithm: id-ecPublicKey
                Public-Key: (256 bit)
                pub:
                    04:fa:a9:ae:ab:7f:6c:53:31:cc:e4:66:0a:7b:1b:
                    e3:11:50:14:31:eb:4f:84:47:05:ca:54:8a:2c:d4:
                    bf:b2:6f:b2:b3:ac:b8:9b:46:22:ab:04:7e:2c:2f:
                    d6:16:97:a8:7b:29:44:ad:7c:f9:02:fd:5b:4f:b5:
                    a1:33:c5:f9:a2
                ASN1 OID: prime256v1
                NIST CURVE: P-256
        X509v3 extensions:
            X509v3 Basic Constraints: 
                CA:FALSE
    Signature Algorithm: ecdsa-with-SHA256
         30:45:02:21:00:b3:62:d9:ab:2e:03:a9:fa:ea:05:24:f7:c9:
         d7:f9:38:d2:64:3f:30:a3:1d:40:02:b3:83:14:a5:ef:03:8d:
         13:02:20:69:8a:2c:b8:51:40:1f:d9:aa:c2:c0:ed:9c:e0:17:
         f1:b9:71:13:7c:64:fc:e2:d2:3b:f1:3c:d7:b5:09:27:e4
-----BEGIN CERTIFICATE-----
MIIBNDCB26ADAgECAgIQDDAKBggqhkjOPQQDAjAWMRQwEgYDVQQDDAtzcm9zMnRl
c3RDQTAeFw0xOTExMjEwNDE0MjBaFw0yOTExMTgwNDE0MjBaMCIxIDAeBgNVBAMM
Fy9zZW5zb3JfbXNnc19pbWFnZV90bXAxMFkwEwYHKoZIzj0CAQYIKoZIzj0DAQcD
QgAE+qmuq39sUzHM5GYKexvjEVAUMetPhEcFylSKLNS/sm+ys6y4m0YiqwR+LC/W
FpeoeylErXz5Av1bT7WhM8X5oqMNMAswCQYDVR0TBAIwADAKBggqhkjOPQQDAgNI
ADBFAiEAs2LZqy4DqfrqBST3ydf5ONJkPzCjHUACs4MUpe8DjRMCIGmKLLhRQB/Z
qsLA7ZzgF/G5cRN8ZPzi0jvxPNe1CSfk
-----END CERTIFICATE-----
