Certificate:
    Data:
        Version: 3 (0x2)
        Serial Number: 4109 (0x100d)
        Signature Algorithm: ecdsa-with-SHA256
        Issuer: CN=sros2testCA
        Validity
            Not Before: Nov 21 05:15:15 2019 GMT
            Not After : Nov 18 05:15:15 2029 GMT
        Subject: CN=/sensor_msgs_image_tmp1
        Subject Public Key Info:
            Public Key Algorithm: id-ecPublicKey
                Public-Key: (256 bit)
                pub:
                    04:f0:f6:8e:29:3a:eb:2d:73:92:19:be:80:42:47:
                    bc:47:fb:26:a4:f6:0a:7c:f9:76:57:61:f8:c5:dd:
                    07:8c:82:6e:e0:08:91:dd:ed:de:49:85:5b:2a:36:
                    ec:ee:58:44:b7:5a:77:f0:e5:38:63:c8:e6:14:09:
                    8e:8e:6e:ca:b5
                ASN1 OID: prime256v1
                NIST CURVE: P-256
        X509v3 extensions:
            X509v3 Basic Constraints: 
                CA:FALSE
    Signature Algorithm: ecdsa-with-SHA256
         30:45:02:21:00:b8:81:dc:7c:24:5c:0e:42:29:02:43:ef:c3:
         21:78:36:a6:2e:f2:85:71:f3:dd:f1:eb:9f:7a:ab:2d:28:2c:
         0d:02:20:22:95:a8:8e:8a:ca:04:78:20:81:3a:1f:32:95:81:
         c4:87:41:a0:6c:e2:02:a4:97:5c:c0:f9:e6:61:87:95:e8
-----BEGIN CERTIFICATE-----
MIIBNDCB26ADAgECAgIQDTAKBggqhkjOPQQDAjAWMRQwEgYDVQQDDAtzcm9zMnRl
c3RDQTAeFw0xOTExMjEwNTE1MTVaFw0yOTExMTgwNTE1MTVaMCIxIDAeBgNVBAMM
Fy9zZW5zb3JfbXNnc19pbWFnZV90bXAxMFkwEwYHKoZIzj0CAQYIKoZIzj0DAQcD
QgAE8PaOKTrrLXOSGb6AQke8R/smpPYKfPl2V2H4xd0HjIJu4AiR3e3eSYVbKjbs
7lhEt1p38OU4Y8jmFAmOjm7KtaMNMAswCQYDVR0TBAIwADAKBggqhkjOPQQDAgNI
ADBFAiEAuIHcfCRcDkIpAkPvwyF4NqYu8oVx893x6596qy0oLA0CICKVqI6KygR4
IIE6HzKVgcSHQaBs4gKkl1zA+eZhh5Xo
-----END CERTIFICATE-----
