Certificate:
    Data:
        Version: 3 (0x2)
        Serial Number: 4110 (0x100e)
        Signature Algorithm: ecdsa-with-SHA256
        Issuer: CN=sros2testCA
        Validity
            Not Before: Nov 21 14:14:03 2019 GMT
            Not After : Nov 18 14:14:03 2029 GMT
        Subject: CN=/sensor_msgs_image_tmp0
        Subject Public Key Info:
            Public Key Algorithm: id-ecPublicKey
                Public-Key: (256 bit)
                pub:
                    04:52:07:69:ee:c3:7b:07:9b:8b:a8:96:0d:00:49:
                    3c:db:19:97:33:19:35:dd:8f:c1:32:26:dd:45:04:
                    e3:52:c2:ad:03:24:c6:3f:63:7f:3c:59:82:6f:3a:
                    b7:c0:a7:3c:26:1f:58:a0:5e:a4:69:cb:71:8d:71:
                    6b:a2:0a:b9:04
                ASN1 OID: prime256v1
                NIST CURVE: P-256
        X509v3 extensions:
            X509v3 Basic Constraints: 
                CA:FALSE
    Signature Algorithm: ecdsa-with-SHA256
         30:45:02:21:00:f8:3a:5d:f8:89:63:3b:e8:b7:cb:bf:2e:8a:
         d8:3e:e0:bc:38:4f:11:76:8c:ba:13:da:36:8a:6c:43:e2:de:
         82:02:20:16:1b:c8:fb:b8:c6:5b:6a:c2:79:b9:6b:da:6f:bd:
         4c:27:5b:e5:52:88:4d:07:ee:51:07:b7:30:8c:26:0c:6c
-----BEGIN CERTIFICATE-----
MIIBNDCB26ADAgECAgIQDjAKBggqhkjOPQQDAjAWMRQwEgYDVQQDDAtzcm9zMnRl
c3RDQTAeFw0xOTExMjExNDE0MDNaFw0yOTExMTgxNDE0MDNaMCIxIDAeBgNVBAMM
Fy9zZW5zb3JfbXNnc19pbWFnZV90bXAwMFkwEwYHKoZIzj0CAQYIKoZIzj0DAQcD
QgAEUgdp7sN7B5uLqJYNAEk82xmXMxk13Y/BMibdRQTjUsKtAyTGP2N/PFmCbzq3
wKc8Jh9YoF6kactxjXFrogq5BKMNMAswCQYDVR0TBAIwADAKBggqhkjOPQQDAgNI
ADBFAiEA+Dpd+IljO+i3y78uitg+4Lw4TxF2jLoT2jaKbEPi3oICIBYbyPu4xltq
wnm5a9pvvUwnW+VSiE0H7lEHtzCMJgxs
-----END CERTIFICATE-----
