Certificate:
    Data:
        Version: 3 (0x2)
        Serial Number: 4111 (0x100f)
        Signature Algorithm: ecdsa-with-SHA256
        Issuer: CN=sros2testCA
        Validity
            Not Before: Nov 21 14:16:36 2019 GMT
            Not After : Nov 18 14:16:36 2029 GMT
        Subject: CN=/std_msgs_int32_tmp0
        Subject Public Key Info:
            Public Key Algorithm: id-ecPublicKey
                Public-Key: (256 bit)
                pub:
                    04:a3:1d:c6:c1:9d:04:50:13:bd:a9:25:a4:00:09:
                    88:08:ab:b7:6b:01:51:4d:5b:21:aa:5d:63:6c:b6:
                    f6:8f:d3:9f:45:ba:4c:68:94:ad:03:1c:1b:59:59:
                    ae:0e:00:df:84:8e:82:ff:fb:fa:37:56:20:54:2f:
                    d3:c7:0b:e7:e9
                ASN1 OID: prime256v1
                NIST CURVE: P-256
        X509v3 extensions:
            X509v3 Basic Constraints: 
                CA:FALSE
    Signature Algorithm: ecdsa-with-SHA256
         30:44:02:20:59:e7:f0:22:3b:70:a3:f6:ef:35:7b:6f:9d:7b:
         51:96:4f:a3:ee:0c:e1:36:b0:53:d9:63:15:f6:0e:52:2d:b4:
         02:20:73:2f:ff:fd:f4:09:9e:13:7b:5c:ca:0b:57:f3:8d:f7:
         c5:27:46:b6:5a:87:15:f8:b2:aa:2b:cc:97:ef:b8:34
-----BEGIN CERTIFICATE-----
MIIBMDCB2KADAgECAgIQDzAKBggqhkjOPQQDAjAWMRQwEgYDVQQDDAtzcm9zMnRl
c3RDQTAeFw0xOTExMjExNDE2MzZaFw0yOTExMTgxNDE2MzZaMB8xHTAbBgNVBAMM
FC9zdGRfbXNnc19pbnQzMl90bXAwMFkwEwYHKoZIzj0CAQYIKoZIzj0DAQcDQgAE
ox3GwZ0EUBO9qSWkAAmICKu3awFRTVshql1jbLb2j9OfRbpMaJStAxwbWVmuDgDf
hI6C//v6N1YgVC/Txwvn6aMNMAswCQYDVR0TBAIwADAKBggqhkjOPQQDAgNHADBE
AiBZ5/AiO3Cj9u81e2+de1GWT6PuDOE2sFPZYxX2DlIttAIgcy///fQJnhN7XMoL
V/ON98UnRrZahxX4sqorzJfvuDQ=
-----END CERTIFICATE-----
