Certificate:
    Data:
        Version: 3 (0x2)
        Serial Number: 4112 (0x1010)
        Signature Algorithm: ecdsa-with-SHA256
        Issuer: CN=sros2testCA
        Validity
            Not Before: Nov 21 14:16:39 2019 GMT
            Not After : Nov 18 14:16:39 2029 GMT
        Subject: CN=/std_msgs_string_tmp0
        Subject Public Key Info:
            Public Key Algorithm: id-ecPublicKey
                Public-Key: (256 bit)
                pub:
                    04:0b:bd:fa:56:99:23:78:06:a4:be:5b:d2:4d:23:
                    7f:dc:85:4e:3a:5e:c0:e1:a6:62:f1:4e:90:81:a5:
                    63:9a:c7:4e:17:2f:02:03:44:24:ea:48:a8:c4:1a:
                    5c:12:c9:25:d3:21:aa:f7:c6:1f:3e:a0:13:df:29:
                    14:16:9d:c6:13
                ASN1 OID: prime256v1
                NIST CURVE: P-256
        X509v3 extensions:
            X509v3 Basic Constraints: 
                CA:FALSE
    Signature Algorithm: ecdsa-with-SHA256
         30:44:02:20:4b:80:e6:9c:c5:8d:a6:3b:d2:f4:81:2d:ee:f2:
         ac:87:30:ed:da:a6:67:4f:fc:96:47:3c:f9:bf:09:7a:53:e7:
         02:20:3d:ee:6d:28:c2:90:07:6c:13:54:6c:c4:e3:c9:db:d2:
         f2:18:33:74:8f:7f:ea:e1:4a:1f:6b:50:19:7d:5a:73
-----BEGIN CERTIFICATE-----
MIIBMTCB2aADAgECAgIQEDAKBggqhkjOPQQDAjAWMRQwEgYDVQQDDAtzcm9zMnRl
c3RDQTAeFw0xOTExMjExNDE2MzlaFw0yOTExMTgxNDE2MzlaMCAxHjAcBgNVBAMM
FS9zdGRfbXNnc19zdHJpbmdfdG1wMDBZMBMGByqGSM49AgEGCCqGSM49AwEHA0IA
BAu9+laZI3gGpL5b0k0jf9yFTjpewOGmYvFOkIGlY5rHThcvAgNEJOpIqMQaXBLJ
JdMhqvfGHz6gE98pFBadxhOjDTALMAkGA1UdEwQCMAAwCgYIKoZIzj0EAwIDRwAw
RAIgS4DmnMWNpjvS9IEt7vKshzDt2qZnT/yWRzz5vwl6U+cCID3ubSjCkAdsE1Rs
xOPJ29LyGDN0j3/q4Uofa1AZfVpz
-----END CERTIFICATE-----
