Certificate:
    Data:
        Version: 3 (0x2)
        Serial Number: 4113 (0x1011)
        Signature Algorithm: ecdsa-with-SHA256
        Issuer: CN=sros2testCA
        Validity
            Not Before: Nov 21 14:19:58 2019 GMT
            Not After : Nov 18 14:19:58 2029 GMT
        Subject: CN=/sensor_msgs_image_tmp0
        Subject Public Key Info:
            Public Key Algorithm: id-ecPublicKey
                Public-Key: (256 bit)
                pub:
                    04:e5:29:6c:f1:14:0f:a3:7d:df:4e:11:f0:8b:44:
                    ee:ea:99:9e:c7:a9:f2:7e:46:32:c4:c5:da:90:80:
                    61:14:34:53:0c:f4:82:d1:97:99:66:7b:d5:2b:69:
                    17:09:f8:b4:69:e5:67:b5:9e:bc:95:c9:94:e6:e4:
                    d8:98:1f:fb:65
                ASN1 OID: prime256v1
                NIST CURVE: P-256
        X509v3 extensions:
            X509v3 Basic Constraints: 
                CA:FALSE
    Signature Algorithm: ecdsa-with-SHA256
         30:45:02:20:4c:fc:74:11:1b:ae:c2:29:eb:1d:9e:65:c6:e1:
         b1:09:a8:f4:a2:fc:58:ed:15:71:03:3c:49:9d:b4:e5:b6:19:
         02:21:00:a1:67:d8:a4:1f:f5:66:c8:9d:e4:be:83:d7:af:0d:
         3b:a6:17:ce:3c:6b:1d:cf:21:d8:ba:cf:85:b8:d7:47:2c
-----BEGIN CERTIFICATE-----
MIIBNDCB26ADAgECAgIQETAKBggqhkjOPQQDAjAWMRQwEgYDVQQDDAtzcm9zMnRl
c3RDQTAeFw0xOTExMjExNDE5NThaFw0yOTExMTgxNDE5NThaMCIxIDAeBgNVBAMM
Fy9zZW5zb3JfbXNnc19pbWFnZV90bXAwMFkwEwYHKoZIzj0CAQYIKoZIzj0DAQcD
QgAE5Sls8RQPo33fThHwi0Tu6pmex6nyfkYyxMXakIBhFDRTDPSC0ZeZZnvVK2kX
Cfi0aeVntZ68lcmU5uTYmB/7ZaMNMAswCQYDVR0TBAIwADAKBggqhkjOPQQDAgNI
ADBFAiBM/HQRG67CKesdnmXG4bEJqPSi/FjtFXEDPEmdtOW2GQIhAKFn2KQf9WbI
neS+g9evDTumF848ax3PIdi6z4W410cs
-----END CERTIFICATE-----
