Certificate:
    Data:
        Version: 3 (0x2)
        Serial Number: 4114 (0x1012)
        Signature Algorithm: ecdsa-with-SHA256
        Issuer: CN=sros2testCA
        Validity
            Not Before: Nov 21 14:22:33 2019 GMT
            Not After : Nov 18 14:22:33 2029 GMT
        Subject: CN=/sensor_msgs_image_tmp0
        Subject Public Key Info:
            Public Key Algorithm: id-ecPublicKey
                Public-Key: (256 bit)
                pub:
                    04:69:f5:39:90:b9:04:d4:90:a4:96:9b:e2:68:07:
                    3b:b2:06:20:49:19:64:49:8d:1a:d5:73:28:4d:84:
                    ea:e7:3a:36:5b:56:28:18:c1:fa:f6:90:37:bc:0c:
                    e6:6d:a3:af:8d:2b:2e:cd:76:cb:a3:d4:f5:01:1e:
                    51:7a:e2:d6:63
                ASN1 OID: prime256v1
                NIST CURVE: P-256
        X509v3 extensions:
            X509v3 Basic Constraints: 
                CA:FALSE
    Signature Algorithm: ecdsa-with-SHA256
         30:45:02:20:34:f1:27:b2:9b:74:19:5d:04:a4:da:5b:d0:f7:
         16:4a:50:e0:43:b7:73:9a:9d:00:67:33:40:5c:08:7b:b2:99:
         02:21:00:bc:28:81:ee:bd:33:ce:8a:d5:65:a2:18:f2:c7:32:
         e7:0f:f5:b2:01:7c:ed:b5:18:2d:17:7c:89:a9:c2:eb:16
-----BEGIN CERTIFICATE-----
MIIBNDCB26ADAgECAgIQEjAKBggqhkjOPQQDAjAWMRQwEgYDVQQDDAtzcm9zMnRl
c3RDQTAeFw0xOTExMjExNDIyMzNaFw0yOTExMTgxNDIyMzNaMCIxIDAeBgNVBAMM
Fy9zZW5zb3JfbXNnc19pbWFnZV90bXAwMFkwEwYHKoZIzj0CAQYIKoZIzj0DAQcD
QgAEafU5kLkE1JCklpviaAc7sgYgSRlkSY0a1XMoTYTq5zo2W1YoGMH69pA3vAzm
baOvjSsuzXbLo9T1AR5ReuLWY6MNMAswCQYDVR0TBAIwADAKBggqhkjOPQQDAgNI
ADBFAiA08Seym3QZXQSk2lvQ9xZKUOBDt3OanQBnM0BcCHuymQIhALwoge69M86K
1WWiGPLHMucP9bIBfO21GC0XfImpwusW
-----END CERTIFICATE-----
