Certificate:
    Data:
        Version: 3 (0x2)
        Serial Number: 4115 (0x1013)
        Signature Algorithm: ecdsa-with-SHA256
        Issuer: CN=sros2testCA
        Validity
            Not Before: Nov 22 04:05:07 2019 GMT
            Not After : Nov 19 04:05:07 2029 GMT
        Subject: CN=/sensor_msgs_image_tmp0
        Subject Public Key Info:
            Public Key Algorithm: id-ecPublicKey
                Public-Key: (256 bit)
                pub:
                    04:49:aa:eb:24:3a:82:f5:3c:21:b8:3f:63:dc:3a:
                    f6:6c:64:ed:d8:2e:65:d7:fe:c7:db:2c:78:0f:98:
                    30:62:2d:e8:c6:77:7d:a8:70:43:96:73:a7:77:09:
                    cc:5b:27:0b:de:cc:8d:7b:b8:85:4d:0d:96:6b:6c:
                    0e:4f:52:18:ef
                ASN1 OID: prime256v1
                NIST CURVE: P-256
        X509v3 extensions:
            X509v3 Basic Constraints: 
                CA:FALSE
    Signature Algorithm: ecdsa-with-SHA256
         30:44:02:20:1d:1a:b5:ed:3f:55:75:ee:7c:e4:8e:45:8d:66:
         07:d1:ab:41:3f:5e:30:6f:a4:fa:d8:a4:c2:be:d0:8e:6b:72:
         02:20:4f:ff:48:a7:76:d2:10:7b:84:6c:5d:dc:d8:c3:73:20:
         0e:f4:ab:fd:b7:b4:11:bf:c0:ca:42:75:92:95:95:a4
-----BEGIN CERTIFICATE-----
MIIBMzCB26ADAgECAgIQEzAKBggqhkjOPQQDAjAWMRQwEgYDVQQDDAtzcm9zMnRl
c3RDQTAeFw0xOTExMjIwNDA1MDdaFw0yOTExMTkwNDA1MDdaMCIxIDAeBgNVBAMM
Fy9zZW5zb3JfbXNnc19pbWFnZV90bXAwMFkwEwYHKoZIzj0CAQYIKoZIzj0DAQcD
QgAESarrJDqC9TwhuD9j3Dr2bGTt2C5l1/7H2yx4D5gwYi3oxnd9qHBDlnOndwnM
WycL3syNe7iFTQ2Wa2wOT1IY76MNMAswCQYDVR0TBAIwADAKBggqhkjOPQQDAgNH
ADBEAiAdGrXtP1V17nzkjkWNZgfRq0E/XjBvpPrYpMK+0I5rcgIgT/9Ip3bSEHuE
bF3c2MNzIA70q/23tBG/wMpCdZKVlaQ=
-----END CERTIFICATE-----
