Certificate:
    Data:
        Version: 3 (0x2)
        Serial Number: 4116 (0x1014)
        Signature Algorithm: ecdsa-with-SHA256
        Issuer: CN=sros2testCA
        Validity
            Not Before: Nov 22 04:10:49 2019 GMT
            Not After : Nov 19 04:10:49 2029 GMT
        Subject: CN=/sensor_msgs_image_tmp0
        Subject Public Key Info:
            Public Key Algorithm: id-ecPublicKey
                Public-Key: (256 bit)
                pub:
                    04:3e:94:cc:8c:1e:da:bd:d8:f2:b6:9f:6d:d2:bc:
                    10:fe:6f:e5:30:dc:1a:16:ae:93:c0:cf:1c:63:ef:
                    5e:3c:40:73:51:8e:dc:e6:99:02:2d:a4:b5:f4:4a:
                    ac:1a:13:dc:da:c2:32:8f:b4:08:c1:34:57:eb:e5:
                    93:2c:07:0f:96
                ASN1 OID: prime256v1
                NIST CURVE: P-256
        X509v3 extensions:
            X509v3 Basic Constraints: 
                CA:FALSE
    Signature Algorithm: ecdsa-with-SHA256
         30:46:02:21:00:f9:24:4a:f6:74:65:f4:2a:ef:ed:02:eb:cb:
         b6:52:c0:3f:ac:4e:84:7e:6b:91:1a:2e:07:75:95:77:e5:dc:
         f0:02:21:00:85:74:c6:78:52:d1:03:a6:cc:0f:f1:8b:10:27:
         58:d2:d5:92:9c:b4:b4:a8:d4:2f:85:e0:5e:82:96:61:3b:5c
-----BEGIN CERTIFICATE-----
MIIBNTCB26ADAgECAgIQFDAKBggqhkjOPQQDAjAWMRQwEgYDVQQDDAtzcm9zMnRl
c3RDQTAeFw0xOTExMjIwNDEwNDlaFw0yOTExMTkwNDEwNDlaMCIxIDAeBgNVBAMM
Fy9zZW5zb3JfbXNnc19pbWFnZV90bXAwMFkwEwYHKoZIzj0CAQYIKoZIzj0DAQcD
QgAEPpTMjB7avdjytp9t0rwQ/m/lMNwaFq6TwM8cY+9ePEBzUY7c5pkCLaS19Eqs
GhPc2sIyj7QIwTRX6+WTLAcPlqMNMAswCQYDVR0TBAIwADAKBggqhkjOPQQDAgNJ
ADBGAiEA+SRK9nRl9Crv7QLry7ZSwD+sToR+a5EaLgd1lXfl3PACIQCFdMZ4UtED
pswP8YsQJ1jS1ZKctLSo1C+F4F6ClmE7XA==
-----END CERTIFICATE-----
