Certificate:
    Data:
        Version: 3 (0x2)
        Serial Number: 4117 (0x1015)
        Signature Algorithm: ecdsa-with-SHA256
        Issuer: CN=sros2testCA
        Validity
            Not Before: Nov 22 04:15:26 2019 GMT
            Not After : Nov 19 04:15:26 2029 GMT
        Subject: CN=/sensor_msgs_image_tmp0
        Subject Public Key Info:
            Public Key Algorithm: id-ecPublicKey
                Public-Key: (256 bit)
                pub:
                    04:55:f7:d9:82:c5:16:13:a6:97:cb:13:8d:40:39:
                    ff:69:39:93:35:e7:33:40:47:18:56:88:26:a5:f7:
                    f7:58:ac:01:64:7d:48:fe:c5:28:32:08:4a:5f:f9:
                    18:f2:79:50:d8:0c:53:c5:34:20:c5:12:fc:d1:78:
                    50:08:02:68:21
                ASN1 OID: prime256v1
                NIST CURVE: P-256
        X509v3 extensions:
            X509v3 Basic Constraints: 
                CA:FALSE
    Signature Algorithm: ecdsa-with-SHA256
         30:46:02:21:00:f6:28:bc:6c:14:a5:e7:8d:67:f0:d2:d2:f8:
         d1:c3:29:67:81:b1:36:ca:c9:65:6b:a5:64:ac:ba:f7:ec:6b:
         ff:02:21:00:ab:e6:cf:51:f2:e8:2c:7d:70:77:96:d3:e1:4d:
         6f:27:f7:9e:18:5c:9c:00:68:aa:7a:6e:da:e2:01:1d:d9:62
-----BEGIN CERTIFICATE-----
MIIBNTCB26ADAgECAgIQFTAKBggqhkjOPQQDAjAWMRQwEgYDVQQDDAtzcm9zMnRl
c3RDQTAeFw0xOTExMjIwNDE1MjZaFw0yOTExMTkwNDE1MjZaMCIxIDAeBgNVBAMM
Fy9zZW5zb3JfbXNnc19pbWFnZV90bXAwMFkwEwYHKoZIzj0CAQYIKoZIzj0DAQcD
QgAEVffZgsUWE6aXyxONQDn/aTmTNeczQEcYVogmpff3WKwBZH1I/sUoMghKX/kY
8nlQ2AxTxTQgxRL80XhQCAJoIaMNMAswCQYDVR0TBAIwADAKBggqhkjOPQQDAgNJ
ADBGAiEA9ii8bBSl541n8NLS+NHDKWeBsTbKyWVrpWSsuvfsa/8CIQCr5s9R8ugs
fXB3ltPhTW8n954YXJwAaKp6btriAR3ZYg==
-----END CERTIFICATE-----
