Certificate:
    Data:
        Version: 3 (0x2)
        Serial Number: 4118 (0x1016)
        Signature Algorithm: ecdsa-with-SHA256
        Issuer: CN=sros2testCA
        Validity
            Not Before: Nov 22 04:22:49 2019 GMT
            Not After : Nov 19 04:22:49 2029 GMT
        Subject: CN=/sensor_msgs_image_tmp0
        Subject Public Key Info:
            Public Key Algorithm: id-ecPublicKey
                Public-Key: (256 bit)
                pub:
                    04:2f:ac:c5:e6:3f:20:c1:97:3a:7f:bc:7c:c8:41:
                    47:0c:d8:4c:22:72:1e:dd:1a:4a:b7:6b:21:fd:20:
                    4f:5b:ac:cc:c4:85:ad:a9:4c:e8:74:35:23:53:ef:
                    e2:f3:6b:57:91:d5:5d:d3:58:86:f5:80:c3:8b:7f:
                    df:6b:c5:7a:a1
                ASN1 OID: prime256v1
                NIST CURVE: P-256
        X509v3 extensions:
            X509v3 Basic Constraints: 
                CA:FALSE
    Signature Algorithm: ecdsa-with-SHA256
         30:44:02:20:4e:c9:de:97:23:95:0c:80:58:75:b6:52:c0:2d:
         6e:d8:5f:d3:8f:ef:9b:65:fb:6d:fb:34:29:54:f8:82:90:e0:
         02:20:4e:f8:59:59:23:27:69:fa:de:d8:b4:8a:1d:8c:a5:81:
         df:c1:33:84:cf:b2:a7:ed:fe:cc:87:e9:0d:df:53:cf
-----BEGIN CERTIFICATE-----
MIIBMzCB26ADAgECAgIQFjAKBggqhkjOPQQDAjAWMRQwEgYDVQQDDAtzcm9zMnRl
c3RDQTAeFw0xOTExMjIwNDIyNDlaFw0yOTExMTkwNDIyNDlaMCIxIDAeBgNVBAMM
Fy9zZW5zb3JfbXNnc19pbWFnZV90bXAwMFkwEwYHKoZIzj0CAQYIKoZIzj0DAQcD
QgAEL6zF5j8gwZc6f7x8yEFHDNhMInIe3RpKt2sh/SBPW6zMxIWtqUzodDUjU+/i
82tXkdVd01iG9YDDi3/fa8V6oaMNMAswCQYDVR0TBAIwADAKBggqhkjOPQQDAgNH
ADBEAiBOyd6XI5UMgFh1tlLALW7YX9OP75tl+237NClU+IKQ4AIgTvhZWSMnafre
2LSKHYylgd/BM4TPsqft/syH6Q3fU88=
-----END CERTIFICATE-----
