Certificate:
    Data:
        Version: 3 (0x2)
        Serial Number: 4119 (0x1017)
        Signature Algorithm: ecdsa-with-SHA256
        Issuer: CN=sros2testCA
        Validity
            Not Before: Nov 22 04:28:48 2019 GMT
            Not After : Nov 19 04:28:48 2029 GMT
        Subject: CN=/sensor_msgs_image_tmp0
        Subject Public Key Info:
            Public Key Algorithm: id-ecPublicKey
                Public-Key: (256 bit)
                pub:
                    04:06:7f:33:49:df:04:43:2b:55:bf:c8:76:c8:5b:
                    22:a2:ce:f7:91:18:72:e9:7e:9e:f3:f3:73:74:0c:
                    50:6c:6f:8f:1b:06:8a:9d:66:4e:f5:39:cd:37:ff:
                    a3:3f:48:e8:93:cc:6d:dd:73:08:d7:c5:54:15:15:
                    ac:bb:4f:49:cb
                ASN1 OID: prime256v1
                NIST CURVE: P-256
        X509v3 extensions:
            X509v3 Basic Constraints: 
                CA:FALSE
    Signature Algorithm: ecdsa-with-SHA256
         30:44:02:20:6d:04:55:d0:80:69:cd:4e:04:25:9d:cd:16:23:
         2f:54:ca:b8:5d:95:fb:fc:97:de:2c:5b:28:b0:bc:8c:4e:06:
         02:20:4f:70:cd:10:4c:f2:9c:b5:a0:f6:91:1a:15:30:2a:4a:
         3d:85:f9:58:6a:63:e5:3b:ae:c6:f1:e6:8a:e9:aa:d6
-----BEGIN CERTIFICATE-----
MIIBMzCB26ADAgECAgIQFzAKBggqhkjOPQQDAjAWMRQwEgYDVQQDDAtzcm9zMnRl
c3RDQTAeFw0xOTExMjIwNDI4NDhaFw0yOTExMTkwNDI4NDhaMCIxIDAeBgNVBAMM
Fy9zZW5zb3JfbXNnc19pbWFnZV90bXAwMFkwEwYHKoZIzj0CAQYIKoZIzj0DAQcD
QgAEBn8zSd8EQytVv8h2yFsios73kRhy6X6e8/NzdAxQbG+PGwaKnWZO9TnNN/+j
P0jok8xt3XMI18VUFRWsu09Jy6MNMAswCQYDVR0TBAIwADAKBggqhkjOPQQDAgNH
ADBEAiBtBFXQgGnNTgQlnc0WIy9Uyrhdlfv8l94sWyiwvIxOBgIgT3DNEEzynLWg
9pEaFTAqSj2F+VhqY+U7rsbx5orpqtY=
-----END CERTIFICATE-----
