Certificate:
    Data:
        Version: 3 (0x2)
        Serial Number: 4120 (0x1018)
        Signature Algorithm: ecdsa-with-SHA256
        Issuer: CN=sros2testCA
        Validity
            Not Before: Nov 22 04:31:32 2019 GMT
            Not After : Nov 19 04:31:32 2029 GMT
        Subject: CN=/sensor_msgs_image_tmp0
        Subject Public Key Info:
            Public Key Algorithm: id-ecPublicKey
                Public-Key: (256 bit)
                pub:
                    04:e8:0a:f0:69:81:59:3c:52:7c:f6:77:0d:8a:65:
                    69:ed:2c:27:de:94:6b:a8:1a:73:d0:80:03:d8:54:
                    24:4a:f2:90:97:36:de:ff:cf:01:be:43:39:a6:bf:
                    9a:0b:a7:7c:61:72:c6:98:5d:9a:5b:22:97:fb:8b:
                    ef:20:cc:47:0a
                ASN1 OID: prime256v1
                NIST CURVE: P-256
        X509v3 extensions:
            X509v3 Basic Constraints: 
                CA:FALSE
    Signature Algorithm: ecdsa-with-SHA256
         30:45:02:21:00:81:3c:fa:6b:62:09:6c:35:c3:fc:2a:29:89:
         aa:11:99:52:91:8b:26:db:d0:3e:cc:ef:a8:e5:88:54:09:0c:
         b2:02:20:27:55:d5:ef:1a:3b:8a:db:38:49:40:67:42:48:78:
         77:24:2a:88:67:96:84:19:ad:d2:a9:4e:d5:97:5c:b8:2c
-----BEGIN CERTIFICATE-----
MIIBNDCB26ADAgECAgIQGDAKBggqhkjOPQQDAjAWMRQwEgYDVQQDDAtzcm9zMnRl
c3RDQTAeFw0xOTExMjIwNDMxMzJaFw0yOTExMTkwNDMxMzJaMCIxIDAeBgNVBAMM
Fy9zZW5zb3JfbXNnc19pbWFnZV90bXAwMFkwEwYHKoZIzj0CAQYIKoZIzj0DAQcD
QgAE6ArwaYFZPFJ89ncNimVp7Swn3pRrqBpz0IAD2FQkSvKQlzbe/88BvkM5pr+a
C6d8YXLGmF2aWyKX+4vvIMxHCqMNMAswCQYDVR0TBAIwADAKBggqhkjOPQQDAgNI
ADBFAiEAgTz6a2IJbDXD/CopiaoRmVKRiybb0D7M76jliFQJDLICICdV1e8aO4rb
OElAZ0JIeHckKohnloQZrdKpTtWXXLgs
-----END CERTIFICATE-----
