Certificate:
    Data:
        Version: 3 (0x2)
        Serial Number: 4121 (0x1019)
        Signature Algorithm: ecdsa-with-SHA256
        Issuer: CN=sros2testCA
        Validity
            Not Before: Nov 22 04:43:23 2019 GMT
            Not After : Nov 19 04:43:23 2029 GMT
        Subject: CN=/sensor_msgs_image_tmp0
        Subject Public Key Info:
            Public Key Algorithm: id-ecPublicKey
                Public-Key: (256 bit)
                pub:
                    04:ed:a9:a0:e1:3c:fd:57:da:2b:ca:85:8b:30:1e:
                    be:f8:55:da:d1:23:4c:fe:eb:af:fa:c4:46:fd:70:
                    db:d9:2e:ad:40:92:97:6d:60:c4:a7:2c:89:2c:5a:
                    6a:a4:7a:e1:36:b4:5c:49:ad:be:d5:2f:b8:35:79:
                    a5:20:58:c3:47
                ASN1 OID: prime256v1
                NIST CURVE: P-256
        X509v3 extensions:
            X509v3 Basic Constraints: 
                CA:FALSE
    Signature Algorithm: ecdsa-with-SHA256
         30:46:02:21:00:e5:8f:82:95:8e:7e:fa:6f:7a:f6:77:cc:bf:
         33:d6:e8:06:47:1b:48:e2:e4:6d:d1:02:35:c0:f7:c1:da:fb:
         c3:02:21:00:ef:ed:30:83:83:93:62:b9:2e:31:14:4f:48:82:
         0b:98:f4:7a:ae:92:74:92:c1:36:46:bc:f3:f4:c7:c2:a3:38
-----BEGIN CERTIFICATE-----
MIIBNTCB26ADAgECAgIQGTAKBggqhkjOPQQDAjAWMRQwEgYDVQQDDAtzcm9zMnRl
c3RDQTAeFw0xOTExMjIwNDQzMjNaFw0yOTExMTkwNDQzMjNaMCIxIDAeBgNVBAMM
Fy9zZW5zb3JfbXNnc19pbWFnZV90bXAwMFkwEwYHKoZIzj0CAQYIKoZIzj0DAQcD
QgAE7amg4Tz9V9oryoWLMB6++FXa0SNM/uuv+sRG/XDb2S6tQJKXbWDEpyyJLFpq
pHrhNrRcSa2+1S+4NXmlIFjDR6MNMAswCQYDVR0TBAIwADAKBggqhkjOPQQDAgNJ
ADBGAiEA5Y+ClY5++m969nfMvzPW6AZHG0ji5G3RAjXA98Ha+8MCIQDv7TCDg5Ni
uS4xFE9IgguY9HquknSSwTZGvPP0x8KjOA==
-----END CERTIFICATE-----
