Certificate:
    Data:
        Version: 3 (0x2)
        Serial Number: 4122 (0x101a)
        Signature Algorithm: ecdsa-with-SHA256
        Issuer: CN=sros2testCA
        Validity
            Not Before: Nov 22 04:50:57 2019 GMT
            Not After : Nov 19 04:50:57 2029 GMT
        Subject: CN=/sensor_msgs_image_tmp0
        Subject Public Key Info:
            Public Key Algorithm: id-ecPublicKey
                Public-Key: (256 bit)
                pub:
                    04:58:90:ec:da:9f:28:06:63:d4:b9:a5:c3:1e:22:
                    69:5b:84:70:9f:4f:df:a6:85:5d:b1:f3:ca:3f:12:
                    42:33:f3:2b:d5:86:77:75:4a:3c:54:9b:c1:df:67:
                    7f:6e:e4:89:f2:60:d0:84:c9:48:b7:39:8c:fd:3f:
                    fb:c4:6d:48:1a
                ASN1 OID: prime256v1
                NIST CURVE: P-256
        X509v3 extensions:
            X509v3 Basic Constraints: 
                CA:FALSE
    Signature Algorithm: ecdsa-with-SHA256
         30:45:02:21:00:b2:59:76:c5:a8:e1:97:39:f1:da:0d:e7:d4:
         df:15:34:39:51:c5:e4:5f:7b:e9:ef:9a:83:34:44:dd:fc:b9:
         be:02:20:17:12:e7:89:8c:82:da:ef:87:a6:bc:70:9e:01:38:
         5b:73:d1:97:f2:e0:92:32:63:5a:40:0c:1e:c9:2d:3c:f9
-----BEGIN CERTIFICATE-----
MIIBNDCB26ADAgECAgIQGjAKBggqhkjOPQQDAjAWMRQwEgYDVQQDDAtzcm9zMnRl
c3RDQTAeFw0xOTExMjIwNDUwNTdaFw0yOTExMTkwNDUwNTdaMCIxIDAeBgNVBAMM
Fy9zZW5zb3JfbXNnc19pbWFnZV90bXAwMFkwEwYHKoZIzj0CAQYIKoZIzj0DAQcD
QgAEWJDs2p8oBmPUuaXDHiJpW4Rwn0/fpoVdsfPKPxJCM/Mr1YZ3dUo8VJvB32d/
buSJ8mDQhMlItzmM/T/7xG1IGqMNMAswCQYDVR0TBAIwADAKBggqhkjOPQQDAgNI
ADBFAiEAsll2xajhlznx2g3n1N8VNDlRxeRfe+nvmoM0RN38ub4CIBcS54mMgtrv
h6a8cJ4BOFtz0Zfy4JIyY1pADB7JLTz5
-----END CERTIFICATE-----
