Certificate:
    Data:
        Version: 3 (0x2)
        Serial Number: 4123 (0x101b)
        Signature Algorithm: ecdsa-with-SHA256
        Issuer: CN=sros2testCA
        Validity
            Not Before: Nov 22 04:54:25 2019 GMT
            Not After : Nov 19 04:54:25 2029 GMT
        Subject: CN=/sensor_msgs_image_tmp0
        Subject Public Key Info:
            Public Key Algorithm: id-ecPublicKey
                Public-Key: (256 bit)
                pub:
                    04:02:f1:7c:9f:ef:66:58:8a:6f:75:b0:b6:de:8a:
                    cb:6e:70:35:00:53:ba:0e:ee:da:98:8d:6b:03:80:
                    7d:54:fa:01:7f:59:80:b6:ed:d7:75:a8:db:c8:15:
                    29:a0:f3:4b:80:d5:50:36:a2:7d:49:e2:56:97:4e:
                    2d:24:20:3d:cb
                ASN1 OID: prime256v1
                NIST CURVE: P-256
        X509v3 extensions:
            X509v3 Basic Constraints: 
                CA:FALSE
    Signature Algorithm: ecdsa-with-SHA256
         30:45:02:20:07:7a:be:ef:43:12:ff:8c:b0:0d:38:c9:e2:4d:
         fe:a1:58:51:ae:68:c1:b8:1a:f3:fc:eb:83:af:48:1c:a0:29:
         02:21:00:b4:eb:d9:27:c3:e7:8e:0a:f3:7b:3e:f5:b6:87:58:
         66:8a:8a:7e:f3:54:44:c4:b4:db:85:e2:9a:bf:9f:a5:cd
-----BEGIN CERTIFICATE-----
MIIBNDCB26ADAgECAgIQGzAKBggqhkjOPQQDAjAWMRQwEgYDVQQDDAtzcm9zMnRl
c3RDQTAeFw0xOTExMjIwNDU0MjVaFw0yOTExMTkwNDU0MjVaMCIxIDAeBgNVBAMM
Fy9zZW5zb3JfbXNnc19pbWFnZV90bXAwMFkwEwYHKoZIzj0CAQYIKoZIzj0DAQcD
QgAEAvF8n+9mWIpvdbC23orLbnA1AFO6Du7amI1rA4B9VPoBf1mAtu3XdajbyBUp
oPNLgNVQNqJ9SeJWl04tJCA9y6MNMAswCQYDVR0TBAIwADAKBggqhkjOPQQDAgNI
ADBFAiAHer7vQxL/jLANOMniTf6hWFGuaMG4GvP864OvSBygKQIhALTr2SfD544K
83s+9baHWGaKin7zVETEtNuF4pq/n6XN
-----END CERTIFICATE-----
