Certificate:
    Data:
        Version: 3 (0x2)
        Serial Number: 4124 (0x101c)
        Signature Algorithm: ecdsa-with-SHA256
        Issuer: CN=sros2testCA
        Validity
            Not Before: Nov 22 04:57:36 2019 GMT
            Not After : Nov 19 04:57:36 2029 GMT
        Subject: CN=/sensor_msgs_image_tmp0
        Subject Public Key Info:
            Public Key Algorithm: id-ecPublicKey
                Public-Key: (256 bit)
                pub:
                    04:0e:9c:9d:09:53:7e:7e:40:c3:34:13:33:1a:96:
                    38:9c:dd:ca:ab:f3:2a:bd:89:20:3c:80:df:42:bd:
                    59:fd:22:2a:36:10:b7:ce:6f:c4:70:47:e7:e9:37:
                    dd:5b:62:92:55:6e:ff:06:5f:fa:98:c1:d9:22:f3:
                    4c:04:11:2b:10
                ASN1 OID: prime256v1
                NIST CURVE: P-256
        X509v3 extensions:
            X509v3 Basic Constraints: 
                CA:FALSE
    Signature Algorithm: ecdsa-with-SHA256
         30:45:02:20:5f:79:61:59:b0:6a:d7:8a:cb:c7:48:7e:bf:06:
         8c:60:f8:4e:b5:59:fc:4e:67:5d:3e:f9:7d:f3:23:b2:93:2b:
         02:21:00:d1:58:76:dc:27:bf:c3:18:ef:49:14:21:c2:22:70:
         44:47:c9:e8:72:63:da:9c:37:09:a6:ed:d6:4c:95:97:8d
-----BEGIN CERTIFICATE-----
MIIBNDCB26ADAgECAgIQHDAKBggqhkjOPQQDAjAWMRQwEgYDVQQDDAtzcm9zMnRl
c3RDQTAeFw0xOTExMjIwNDU3MzZaFw0yOTExMTkwNDU3MzZaMCIxIDAeBgNVBAMM
Fy9zZW5zb3JfbXNnc19pbWFnZV90bXAwMFkwEwYHKoZIzj0CAQYIKoZIzj0DAQcD
QgAEDpydCVN+fkDDNBMzGpY4nN3Kq/MqvYkgPIDfQr1Z/SIqNhC3zm/EcEfn6Tfd
W2KSVW7/Bl/6mMHZIvNMBBErEKMNMAswCQYDVR0TBAIwADAKBggqhkjOPQQDAgNI
ADBFAiBfeWFZsGrXisvHSH6/Boxg+E61WfxOZ10++X3zI7KTKwIhANFYdtwnv8MY
70kUIcIicERHyehyY9qcNwmm7dZMlZeN
-----END CERTIFICATE-----
