Certificate:
    Data:
        Version: 3 (0x2)
        Serial Number: 4125 (0x101d)
        Signature Algorithm: ecdsa-with-SHA256
        Issuer: CN=sros2testCA
        Validity
            Not Before: Nov 22 05:07:18 2019 GMT
            Not After : Nov 19 05:07:18 2029 GMT
        Subject: CN=/sensor_msgs_image_tmp0
        Subject Public Key Info:
            Public Key Algorithm: id-ecPublicKey
                Public-Key: (256 bit)
                pub:
                    04:32:8d:fd:e3:ba:ea:dc:44:a4:41:6f:de:9d:c5:
                    4e:07:6f:d2:27:4d:75:bd:b7:10:90:f4:72:14:b4:
                    3d:20:e8:af:ad:b7:1a:81:31:6f:c7:bf:2c:c5:54:
                    2d:ed:c1:7b:e6:46:32:76:aa:48:52:e1:86:29:1a:
                    a2:da:72:5c:39
                ASN1 OID: prime256v1
                NIST CURVE: P-256
        X509v3 extensions:
            X509v3 Basic Constraints: 
                CA:FALSE
    Signature Algorithm: ecdsa-with-SHA256
         30:45:02:20:1a:75:70:2f:3a:ea:c9:10:ed:9c:8d:35:1d:24:
         79:bb:9a:6a:86:30:e6:61:74:b8:5b:42:af:8b:a7:4b:ce:e4:
         02:21:00:d0:e0:b6:43:bf:a7:21:47:4e:3f:a0:e8:46:21:88:
         81:27:cd:c9:35:e3:d8:eb:de:4f:cb:72:5e:7f:61:52:a4
-----BEGIN CERTIFICATE-----
MIIBNDCB26ADAgECAgIQHTAKBggqhkjOPQQDAjAWMRQwEgYDVQQDDAtzcm9zMnRl
c3RDQTAeFw0xOTExMjIwNTA3MThaFw0yOTExMTkwNTA3MThaMCIxIDAeBgNVBAMM
Fy9zZW5zb3JfbXNnc19pbWFnZV90bXAwMFkwEwYHKoZIzj0CAQYIKoZIzj0DAQcD
QgAEMo3947rq3ESkQW/encVOB2/SJ011vbcQkPRyFLQ9IOivrbcagTFvx78sxVQt
7cF75kYydqpIUuGGKRqi2nJcOaMNMAswCQYDVR0TBAIwADAKBggqhkjOPQQDAgNI
ADBFAiAadXAvOurJEO2cjTUdJHm7mmqGMOZhdLhbQq+Lp0vO5AIhANDgtkO/pyFH
Tj+g6EYhiIEnzck149jr3k/Lcl5/YVKk
-----END CERTIFICATE-----
