Certificate:
    Data:
        Version: 3 (0x2)
        Serial Number: 4126 (0x101e)
        Signature Algorithm: ecdsa-with-SHA256
        Issuer: CN=sros2testCA
        Validity
            Not Before: Nov 22 05:08:14 2019 GMT
            Not After : Nov 19 05:08:14 2029 GMT
        Subject: CN=/sensor_msgs_image_tmp0
        Subject Public Key Info:
            Public Key Algorithm: id-ecPublicKey
                Public-Key: (256 bit)
                pub:
                    04:3f:b5:d6:0c:05:4a:c1:ec:1e:ae:6f:a1:be:e1:
                    e4:a9:b3:89:bd:da:3f:7b:7d:b5:91:5e:4d:1d:7d:
                    c7:34:56:34:7a:18:b1:90:ac:a8:af:f3:34:22:8d:
                    42:13:e6:d6:74:47:a9:0a:75:df:ae:5d:d4:68:70:
                    a9:b1:6e:1c:32
                ASN1 OID: prime256v1
                NIST CURVE: P-256
        X509v3 extensions:
            X509v3 Basic Constraints: 
                CA:FALSE
    Signature Algorithm: ecdsa-with-SHA256
         30:45:02:21:00:d0:f6:cf:af:68:c3:4e:f1:a6:2f:3e:a4:d3:
         49:56:7c:c4:6f:12:cc:e9:42:ad:87:4e:a5:b7:4b:dd:21:f5:
         fc:02:20:4d:ce:9f:37:68:4a:18:32:19:22:52:7b:8b:26:a8:
         a1:11:6c:55:fb:ea:89:d1:fa:1b:96:e5:b0:8e:a3:16:86
-----BEGIN CERTIFICATE-----
MIIBNDCB26ADAgECAgIQHjAKBggqhkjOPQQDAjAWMRQwEgYDVQQDDAtzcm9zMnRl
c3RDQTAeFw0xOTExMjIwNTA4MTRaFw0yOTExMTkwNTA4MTRaMCIxIDAeBgNVBAMM
Fy9zZW5zb3JfbXNnc19pbWFnZV90bXAwMFkwEwYHKoZIzj0CAQYIKoZIzj0DAQcD
QgAEP7XWDAVKwewerm+hvuHkqbOJvdo/e321kV5NHX3HNFY0ehixkKyor/M0Io1C
E+bWdEepCnXfrl3UaHCpsW4cMqMNMAswCQYDVR0TBAIwADAKBggqhkjOPQQDAgNI
ADBFAiEA0PbPr2jDTvGmLz6k00lWfMRvEszpQq2HTqW3S90h9fwCIE3OnzdoShgy
GSJSe4smqKERbFX76onR+huW5bCOoxaG
-----END CERTIFICATE-----
