Certificate:
    Data:
        Version: 3 (0x2)
        Serial Number: 4127 (0x101f)
        Signature Algorithm: ecdsa-with-SHA256
        Issuer: CN=sros2testCA
        Validity
            Not Before: Nov 22 05:08:18 2019 GMT
            Not After : Nov 19 05:08:18 2029 GMT
        Subject: CN=/sensor_msgs_image_tmp1
        Subject Public Key Info:
            Public Key Algorithm: id-ecPublicKey
                Public-Key: (256 bit)
                pub:
                    04:be:0b:c4:77:b0:33:ee:c5:c1:30:ff:ac:4f:db:
                    f7:14:3d:f7:e3:c9:68:95:8f:85:9c:8c:ff:3e:fe:
                    91:0f:db:10:52:6c:a1:b6:1e:22:19:f4:d2:ac:4b:
                    54:db:77:09:a9:71:98:84:fc:22:ed:0a:51:11:c6:
                    d0:cc:0e:cd:eb
                ASN1 OID: prime256v1
                NIST CURVE: P-256
        X509v3 extensions:
            X509v3 Basic Constraints: 
                CA:FALSE
    Signature Algorithm: ecdsa-with-SHA256
         30:44:02:20:51:83:2e:7b:f7:80:c2:f8:1f:83:02:47:c6:f0:
         8a:9f:fc:c9:89:0a:1a:91:47:f7:03:ad:cd:fe:c8:c0:6b:26:
         02:20:7e:90:23:31:67:c6:70:14:61:5c:2a:67:b5:ce:26:20:
         77:bf:b7:29:e3:61:da:39:bc:dd:00:9f:3a:02:b8:91
-----BEGIN CERTIFICATE-----
MIIBMzCB26ADAgECAgIQHzAKBggqhkjOPQQDAjAWMRQwEgYDVQQDDAtzcm9zMnRl
c3RDQTAeFw0xOTExMjIwNTA4MThaFw0yOTExMTkwNTA4MThaMCIxIDAeBgNVBAMM
Fy9zZW5zb3JfbXNnc19pbWFnZV90bXAxMFkwEwYHKoZIzj0CAQYIKoZIzj0DAQcD
QgAEvgvEd7Az7sXBMP+sT9v3FD3348lolY+FnIz/Pv6RD9sQUmyhth4iGfTSrEtU
23cJqXGYhPwi7QpREcbQzA7N66MNMAswCQYDVR0TBAIwADAKBggqhkjOPQQDAgNH
ADBEAiBRgy5794DC+B+DAkfG8Iqf/MmJChqRR/cDrc3+yMBrJgIgfpAjMWfGcBRh
XCpntc4mIHe/tynjYdo5vN0AnzoCuJE=
-----END CERTIFICATE-----
