Certificate:
    Data:
        Version: 3 (0x2)
        Serial Number: 4128 (0x1020)
        Signature Algorithm: ecdsa-with-SHA256
        Issuer: CN=sros2testCA
        Validity
            Not Before: Nov 22 05:14:26 2019 GMT
            Not After : Nov 19 05:14:26 2029 GMT
        Subject: CN=/sensor_msgs_image_tmp0
        Subject Public Key Info:
            Public Key Algorithm: id-ecPublicKey
                Public-Key: (256 bit)
                pub:
                    04:98:f3:70:da:87:74:bd:10:79:eb:f3:aa:b6:7b:
                    93:c6:f5:3c:8e:48:7a:2e:84:e5:af:a8:d2:50:f4:
                    ad:2c:83:ab:c1:5c:5c:f7:1e:b2:40:bc:30:eb:c8:
                    ae:19:ec:80:0a:ad:90:15:f9:13:fd:67:a7:13:98:
                    a6:9e:a1:b0:83
                ASN1 OID: prime256v1
                NIST CURVE: P-256
        X509v3 extensions:
            X509v3 Basic Constraints: 
                CA:FALSE
    Signature Algorithm: ecdsa-with-SHA256
         30:46:02:21:00:e1:c1:40:64:7f:96:0f:be:82:ae:86:89:e1:
         88:56:7b:cf:72:7c:9b:2e:ff:be:22:0e:f5:ff:6f:87:d4:25:
         85:02:21:00:d1:d3:96:0b:13:80:c5:18:0c:89:ed:4a:a0:23:
         a3:03:9a:5c:8b:3d:ac:a5:32:34:73:8d:f1:bf:fc:c5:f8:16
-----BEGIN CERTIFICATE-----
MIIBNTCB26ADAgECAgIQIDAKBggqhkjOPQQDAjAWMRQwEgYDVQQDDAtzcm9zMnRl
c3RDQTAeFw0xOTExMjIwNTE0MjZaFw0yOTExMTkwNTE0MjZaMCIxIDAeBgNVBAMM
Fy9zZW5zb3JfbXNnc19pbWFnZV90bXAwMFkwEwYHKoZIzj0CAQYIKoZIzj0DAQcD
QgAEmPNw2od0vRB56/OqtnuTxvU8jkh6LoTlr6jSUPStLIOrwVxc9x6yQLww68iu
GeyACq2QFfkT/WenE5imnqGwg6MNMAswCQYDVR0TBAIwADAKBggqhkjOPQQDAgNJ
ADBGAiEA4cFAZH+WD76CroaJ4YhWe89yfJsu/74iDvX/b4fUJYUCIQDR05YLE4DF
GAyJ7UqgI6MDmlyLPaylMjRzjfG//MX4Fg==
-----END CERTIFICATE-----
