Certificate:
    Data:
        Version: 3 (0x2)
        Serial Number: 4129 (0x1021)
        Signature Algorithm: ecdsa-with-SHA256
        Issuer: CN=sros2testCA
        Validity
            Not Before: Nov 22 05:24:44 2019 GMT
            Not After : Nov 19 05:24:44 2029 GMT
        Subject: CN=/sensor_msgs_image_tmp0
        Subject Public Key Info:
            Public Key Algorithm: id-ecPublicKey
                Public-Key: (256 bit)
                pub:
                    04:4c:c0:a5:19:7c:b6:cd:89:9c:0f:1a:35:8b:9a:
                    74:c2:37:72:44:01:d2:37:3a:02:6e:cd:10:62:8b:
                    04:c4:29:24:b4:91:42:73:e4:fb:9d:8a:a8:81:74:
                    90:f9:58:43:22:98:92:13:0e:a6:39:9e:4d:33:e5:
                    3e:d9:2d:84:5e
                ASN1 OID: prime256v1
                NIST CURVE: P-256
        X509v3 extensions:
            X509v3 Basic Constraints: 
                CA:FALSE
    Signature Algorithm: ecdsa-with-SHA256
         30:46:02:21:00:b2:2e:04:7e:f6:54:11:87:16:4d:62:d3:07:
         6d:3e:0a:ea:ab:6d:c7:67:32:c4:11:d6:f8:87:a8:de:78:ef:
         9a:02:21:00:cd:09:2b:4a:8a:de:4c:ae:7c:a3:81:ea:a2:8b:
         c5:58:78:7b:43:20:d9:76:b1:80:77:a6:a4:81:bd:39:d7:66
-----BEGIN CERTIFICATE-----
MIIBNTCB26ADAgECAgIQITAKBggqhkjOPQQDAjAWMRQwEgYDVQQDDAtzcm9zMnRl
c3RDQTAeFw0xOTExMjIwNTI0NDRaFw0yOTExMTkwNTI0NDRaMCIxIDAeBgNVBAMM
Fy9zZW5zb3JfbXNnc19pbWFnZV90bXAwMFkwEwYHKoZIzj0CAQYIKoZIzj0DAQcD
QgAETMClGXy2zYmcDxo1i5p0wjdyRAHSNzoCbs0QYosExCkktJFCc+T7nYqogXSQ
+VhDIpiSEw6mOZ5NM+U+2S2EXqMNMAswCQYDVR0TBAIwADAKBggqhkjOPQQDAgNJ
ADBGAiEAsi4EfvZUEYcWTWLTB20+CuqrbcdnMsQR1viHqN5475oCIQDNCStKit5M
rnyjgeqii8VYeHtDINl2sYB3pqSBvTnXZg==
-----END CERTIFICATE-----
