Certificate:
    Data:
        Version: 3 (0x2)
        Serial Number: 4130 (0x1022)
        Signature Algorithm: ecdsa-with-SHA256
        Issuer: CN=sros2testCA
        Validity
            Not Before: Nov 22 05:25:49 2019 GMT
            Not After : Nov 19 05:25:49 2029 GMT
        Subject: CN=/sensor_msgs_image_tmp0
        Subject Public Key Info:
            Public Key Algorithm: id-ecPublicKey
                Public-Key: (256 bit)
                pub:
                    04:72:27:7a:51:6e:5b:c4:8b:ef:94:24:03:72:bc:
                    2d:16:73:e9:7a:79:c3:be:93:65:f7:43:63:48:52:
                    4d:56:3a:9e:e2:fd:91:fc:7b:2d:43:b2:a2:8f:05:
                    e8:51:5c:ea:d3:38:e3:56:86:a3:7d:cc:30:33:74:
                    1a:9a:94:3e:e9
                ASN1 OID: prime256v1
                NIST CURVE: P-256
        X509v3 extensions:
            X509v3 Basic Constraints: 
                CA:FALSE
    Signature Algorithm: ecdsa-with-SHA256
         30:44:02:20:42:52:c5:91:62:99:18:16:c3:02:47:a6:04:ab:
         5e:93:a7:36:89:89:ec:c4:79:79:54:d6:d1:b8:7e:5f:7c:e1:
         02:20:54:d9:d6:48:0c:f2:68:d0:fb:8e:58:9e:a6:b2:85:51:
         40:ba:64:1a:79:3a:c9:f3:b5:ac:5c:b2:47:b2:56:84
-----BEGIN CERTIFICATE-----
MIIBMzCB26ADAgECAgIQIjAKBggqhkjOPQQDAjAWMRQwEgYDVQQDDAtzcm9zMnRl
c3RDQTAeFw0xOTExMjIwNTI1NDlaFw0yOTExMTkwNTI1NDlaMCIxIDAeBgNVBAMM
Fy9zZW5zb3JfbXNnc19pbWFnZV90bXAwMFkwEwYHKoZIzj0CAQYIKoZIzj0DAQcD
QgAEcid6UW5bxIvvlCQDcrwtFnPpennDvpNl90NjSFJNVjqe4v2R/HstQ7KijwXo
UVzq0zjjVoajfcwwM3QampQ+6aMNMAswCQYDVR0TBAIwADAKBggqhkjOPQQDAgNH
ADBEAiBCUsWRYpkYFsMCR6YEq16TpzaJiezEeXlU1tG4fl984QIgVNnWSAzyaND7
jlieprKFUUC6ZBp5OsnztaxcskeyVoQ=
-----END CERTIFICATE-----
