Certificate:
    Data:
        Version: 3 (0x2)
        Serial Number: 4131 (0x1023)
        Signature Algorithm: ecdsa-with-SHA256
        Issuer: CN=sros2testCA
        Validity
            Not Before: Nov 22 05:26:27 2019 GMT
            Not After : Nov 19 05:26:27 2029 GMT
        Subject: CN=/sensor_msgs_image_tmp0
        Subject Public Key Info:
            Public Key Algorithm: id-ecPublicKey
                Public-Key: (256 bit)
                pub:
                    04:3a:95:4e:db:c5:8b:97:23:35:8e:49:ed:c1:ec:
                    7e:a9:90:6d:8d:12:b9:78:45:d1:92:88:21:f0:b9:
                    3e:46:46:57:64:16:66:4d:33:9b:8c:57:fb:22:85:
                    23:83:d8:f1:39:5d:57:8f:2c:66:fc:62:f3:ce:fb:
                    ac:22:1a:36:94
                ASN1 OID: prime256v1
                NIST CURVE: P-256
        X509v3 extensions:
            X509v3 Basic Constraints: 
                CA:FALSE
    Signature Algorithm: ecdsa-with-SHA256
         30:45:02:21:00:ea:4c:3a:c2:53:d4:fe:25:53:62:58:42:02:
         3e:3b:f5:bc:c4:b6:8c:93:66:5e:72:69:68:34:15:29:0f:a8:
         4e:02:20:0e:97:42:f0:f4:f4:f4:05:e7:0f:a2:0c:4a:f3:ac:
         62:d9:b0:fe:0e:5b:fe:57:c9:ae:0e:1e:b0:4c:17:e0:0a
-----BEGIN CERTIFICATE-----
MIIBNDCB26ADAgECAgIQIzAKBggqhkjOPQQDAjAWMRQwEgYDVQQDDAtzcm9zMnRl
c3RDQTAeFw0xOTExMjIwNTI2MjdaFw0yOTExMTkwNTI2MjdaMCIxIDAeBgNVBAMM
Fy9zZW5zb3JfbXNnc19pbWFnZV90bXAwMFkwEwYHKoZIzj0CAQYIKoZIzj0DAQcD
QgAEOpVO28WLlyM1jkntwex+qZBtjRK5eEXRkogh8Lk+RkZXZBZmTTObjFf7IoUj
g9jxOV1Xjyxm/GLzzvusIho2lKMNMAswCQYDVR0TBAIwADAKBggqhkjOPQQDAgNI
ADBFAiEA6kw6wlPU/iVTYlhCAj479bzEtoyTZl5yaWg0FSkPqE4CIA6XQvD09PQF
5w+iDErzrGLZsP4OW/5Xya4OHrBMF+AK
-----END CERTIFICATE-----
