Certificate:
    Data:
        Version: 3 (0x2)
        Serial Number: 4132 (0x1024)
        Signature Algorithm: ecdsa-with-SHA256
        Issuer: CN=sros2testCA
        Validity
            Not Before: Nov 22 05:29:41 2019 GMT
            Not After : Nov 19 05:29:41 2029 GMT
        Subject: CN=/sensor_msgs_image_tmp0
        Subject Public Key Info:
            Public Key Algorithm: id-ecPublicKey
                Public-Key: (256 bit)
                pub:
                    04:3a:fc:07:cd:72:46:1b:0b:e8:fa:3b:86:9e:fc:
                    96:fd:a9:70:dd:2a:72:3a:46:cf:62:52:97:78:08:
                    f4:7a:f4:50:8f:7f:77:77:16:aa:92:ce:0d:42:f5:
                    ec:1b:9f:94:5b:03:cc:1d:48:9a:d8:7c:65:be:81:
                    b6:14:3c:f8:48
                ASN1 OID: prime256v1
                NIST CURVE: P-256
        X509v3 extensions:
            X509v3 Basic Constraints: 
                CA:FALSE
    Signature Algorithm: ecdsa-with-SHA256
         30:44:02:20:4f:71:81:e1:b1:77:32:59:61:89:74:3e:6c:b1:
         29:fb:4c:a3:db:97:da:e0:12:8b:6c:e5:64:68:40:38:9f:cf:
         02:20:30:64:ed:8a:78:7e:df:00:07:cc:5d:8b:24:06:a9:02:
         5c:ee:07:d8:db:c1:a4:fb:f7:f4:89:f9:06:0f:ba:39
-----BEGIN CERTIFICATE-----
MIIBMzCB26ADAgECAgIQJDAKBggqhkjOPQQDAjAWMRQwEgYDVQQDDAtzcm9zMnRl
c3RDQTAeFw0xOTExMjIwNTI5NDFaFw0yOTExMTkwNTI5NDFaMCIxIDAeBgNVBAMM
Fy9zZW5zb3JfbXNnc19pbWFnZV90bXAwMFkwEwYHKoZIzj0CAQYIKoZIzj0DAQcD
QgAEOvwHzXJGGwvo+juGnvyW/alw3SpyOkbPYlKXeAj0evRQj393dxaqks4NQvXs
G5+UWwPMHUia2HxlvoG2FDz4SKMNMAswCQYDVR0TBAIwADAKBggqhkjOPQQDAgNH
ADBEAiBPcYHhsXcyWWGJdD5ssSn7TKPbl9rgEots5WRoQDifzwIgMGTtinh+3wAH
zF2LJAapAlzuB9jbwaT79/SJ+QYPujk=
-----END CERTIFICATE-----
