Certificate:
    Data:
        Version: 3 (0x2)
        Serial Number: 4133 (0x1025)
        Signature Algorithm: ecdsa-with-SHA256
        Issuer: CN=sros2testCA
        Validity
            Not Before: Nov 22 05:31:32 2019 GMT
            Not After : Nov 19 05:31:32 2029 GMT
        Subject: CN=/sensor_msgs_image_tmp0
        Subject Public Key Info:
            Public Key Algorithm: id-ecPublicKey
                Public-Key: (256 bit)
                pub:
                    04:7c:5f:d1:e5:26:ac:1e:9f:6e:6f:cb:09:bc:99:
                    90:d9:c2:28:4c:0f:9e:d5:01:b9:01:bd:9a:c2:6d:
                    be:db:a7:03:1f:76:c0:da:9b:9d:6b:5c:e6:ea:0c:
                    ce:0b:51:9e:74:33:b3:0c:b8:20:51:83:f4:70:fa:
                    0a:e5:46:f5:03
                ASN1 OID: prime256v1
                NIST CURVE: P-256
        X509v3 extensions:
            X509v3 Basic Constraints: 
                CA:FALSE
    Signature Algorithm: ecdsa-with-SHA256
         30:45:02:20:59:ea:f2:86:b2:ac:34:09:0b:16:69:3a:9a:45:
         76:45:e8:b4:11:ba:e4:36:31:52:a3:69:b9:78:18:ba:25:0b:
         02:21:00:a6:64:bb:7b:39:cd:55:3c:2e:ff:fd:07:fa:32:99:
         b4:13:bf:90:68:08:ad:7f:49:85:b9:c1:06:0e:0a:b0:bc
-----BEGIN CERTIFICATE-----
MIIBNDCB26ADAgECAgIQJTAKBggqhkjOPQQDAjAWMRQwEgYDVQQDDAtzcm9zMnRl
c3RDQTAeFw0xOTExMjIwNTMxMzJaFw0yOTExMTkwNTMxMzJaMCIxIDAeBgNVBAMM
Fy9zZW5zb3JfbXNnc19pbWFnZV90bXAwMFkwEwYHKoZIzj0CAQYIKoZIzj0DAQcD
QgAEfF/R5SasHp9ub8sJvJmQ2cIoTA+e1QG5Ab2awm2+26cDH3bA2puda1zm6gzO
C1GedDOzDLggUYP0cPoK5Ub1A6MNMAswCQYDVR0TBAIwADAKBggqhkjOPQQDAgNI
ADBFAiBZ6vKGsqw0CQsWaTqaRXZF6LQRuuQ2MVKjabl4GLolCwIhAKZku3s5zVU8
Lv/9B/oymbQTv5BoCK1/SYW5wQYOCrC8
-----END CERTIFICATE-----
