Certificate:
    Data:
        Version: 3 (0x2)
        Serial Number: 4134 (0x1026)
        Signature Algorithm: ecdsa-with-SHA256
        Issuer: CN=sros2testCA
        Validity
            Not Before: Nov 22 05:39:10 2019 GMT
            Not After : Nov 19 05:39:10 2029 GMT
        Subject: CN=/sensor_msgs_image_tmp1
        Subject Public Key Info:
            Public Key Algorithm: id-ecPublicKey
                Public-Key: (256 bit)
                pub:
                    04:ec:5f:ad:43:dc:35:c4:56:8a:78:b7:b3:ac:56:
                    b7:2b:70:b0:8d:48:0e:9a:69:35:f7:2c:54:3b:46:
                    d7:b6:f1:9f:39:bf:9b:2f:80:a9:09:0c:69:54:99:
                    8a:12:41:49:78:87:44:36:40:ff:5a:f7:81:30:0d:
                    db:7b:80:ce:bb
                ASN1 OID: prime256v1
                NIST CURVE: P-256
        X509v3 extensions:
            X509v3 Basic Constraints: 
                CA:FALSE
    Signature Algorithm: ecdsa-with-SHA256
         30:45:02:20:61:6b:85:94:9c:d7:e8:06:05:97:54:fa:89:72:
         7e:28:23:40:4c:77:34:17:1a:b3:d9:4c:80:a8:45:86:f4:c5:
         02:21:00:b1:81:82:93:f3:9e:70:21:69:e1:0b:18:6a:65:94:
         ae:96:49:0b:b5:a8:1c:2d:bf:75:50:62:91:09:e1:9b:b4
-----BEGIN CERTIFICATE-----
MIIBNDCB26ADAgECAgIQJjAKBggqhkjOPQQDAjAWMRQwEgYDVQQDDAtzcm9zMnRl
c3RDQTAeFw0xOTExMjIwNTM5MTBaFw0yOTExMTkwNTM5MTBaMCIxIDAeBgNVBAMM
Fy9zZW5zb3JfbXNnc19pbWFnZV90bXAxMFkwEwYHKoZIzj0CAQYIKoZIzj0DAQcD
QgAE7F+tQ9w1xFaKeLezrFa3K3CwjUgOmmk19yxUO0bXtvGfOb+bL4CpCQxpVJmK
EkFJeIdENkD/WveBMA3be4DOu6MNMAswCQYDVR0TBAIwADAKBggqhkjOPQQDAgNI
ADBFAiBha4WUnNfoBgWXVPqJcn4oI0BMdzQXGrPZTICoRYb0xQIhALGBgpPznnAh
aeELGGpllK6WSQu1qBwtv3VQYpEJ4Zu0
-----END CERTIFICATE-----
