Certificate:
    Data:
        Version: 3 (0x2)
        Serial Number: 4135 (0x1027)
        Signature Algorithm: ecdsa-with-SHA256
        Issuer: CN=sros2testCA
        Validity
            Not Before: Nov 22 05:39:13 2019 GMT
            Not After : Nov 19 05:39:13 2029 GMT
        Subject: CN=/sensor_msgs_image_tmp2
        Subject Public Key Info:
            Public Key Algorithm: id-ecPublicKey
                Public-Key: (256 bit)
                pub:
                    04:ac:87:0c:f3:50:11:fb:25:6f:62:48:77:b5:35:
                    e9:5f:56:f3:68:67:17:21:2f:57:cd:9b:a3:1c:47:
                    c5:d2:f0:b0:fb:14:c7:84:7a:f8:f2:aa:d6:fc:6d:
                    cb:a6:01:1d:27:12:0f:a4:0d:8a:e3:03:2d:f8:6a:
                    f9:f9:69:75:c9
                ASN1 OID: prime256v1
                NIST CURVE: P-256
        X509v3 extensions:
            X509v3 Basic Constraints: 
                CA:FALSE
    Signature Algorithm: ecdsa-with-SHA256
         30:45:02:20:59:c2:5d:15:f5:8d:3c:1a:35:60:c1:e4:f1:47:
         34:90:b6:32:10:6c:81:68:1e:89:67:0c:b2:30:55:9e:4e:ca:
         02:21:00:9b:4d:22:5f:82:25:9d:72:f3:d1:fc:d0:2b:8e:1a:
         5e:ef:da:8c:e3:16:32:b2:b0:79:a2:27:b3:32:a1:8e:e7
-----BEGIN CERTIFICATE-----
MIIBNDCB26ADAgECAgIQJzAKBggqhkjOPQQDAjAWMRQwEgYDVQQDDAtzcm9zMnRl
c3RDQTAeFw0xOTExMjIwNTM5MTNaFw0yOTExMTkwNTM5MTNaMCIxIDAeBgNVBAMM
Fy9zZW5zb3JfbXNnc19pbWFnZV90bXAyMFkwEwYHKoZIzj0CAQYIKoZIzj0DAQcD
QgAErIcM81AR+yVvYkh3tTXpX1bzaGcXIS9XzZujHEfF0vCw+xTHhHr48qrW/G3L
pgEdJxIPpA2K4wMt+Gr5+Wl1yaMNMAswCQYDVR0TBAIwADAKBggqhkjOPQQDAgNI
ADBFAiBZwl0V9Y08GjVgweTxRzSQtjIQbIFoHolnDLIwVZ5OygIhAJtNIl+CJZ1y
89H80CuOGl7v2ozjFjKysHmiJ7MyoY7n
-----END CERTIFICATE-----
