Certificate:
    Data:
        Version: 3 (0x2)
        Serial Number: 4136 (0x1028)
        Signature Algorithm: ecdsa-with-SHA256
        Issuer: CN=sros2testCA
        Validity
            Not Before: Nov 22 05:39:17 2019 GMT
            Not After : Nov 19 05:39:17 2029 GMT
        Subject: CN=/sensor_msgs_image_tmp3
        Subject Public Key Info:
            Public Key Algorithm: id-ecPublicKey
                Public-Key: (256 bit)
                pub:
                    04:7b:8f:a4:00:cb:e7:39:fa:89:1c:76:24:84:98:
                    4b:0f:66:b8:cb:68:76:0d:c0:85:e3:73:8e:10:4c:
                    c9:3f:92:cd:a1:a8:fe:6c:5f:55:d2:b2:22:8f:86:
                    39:67:9c:ff:0f:11:4a:aa:52:31:80:ea:97:ab:04:
                    69:1b:d6:7d:20
                ASN1 OID: prime256v1
                NIST CURVE: P-256
        X509v3 extensions:
            X509v3 Basic Constraints: 
                CA:FALSE
    Signature Algorithm: ecdsa-with-SHA256
         30:45:02:21:00:b7:e8:15:82:f6:7d:5e:20:3b:90:fd:4b:60:
         3b:f9:70:1c:66:46:2d:4a:62:75:39:c9:d1:3a:c0:ab:a2:1d:
         03:02:20:15:d7:05:5a:f5:59:37:d1:39:ad:6d:d1:45:37:e0:
         2d:ad:a0:9c:a5:02:8d:9d:c1:b2:f4:a2:43:6b:e1:a2:39
-----BEGIN CERTIFICATE-----
MIIBNDCB26ADAgECAgIQKDAKBggqhkjOPQQDAjAWMRQwEgYDVQQDDAtzcm9zMnRl
c3RDQTAeFw0xOTExMjIwNTM5MTdaFw0yOTExMTkwNTM5MTdaMCIxIDAeBgNVBAMM
Fy9zZW5zb3JfbXNnc19pbWFnZV90bXAzMFkwEwYHKoZIzj0CAQYIKoZIzj0DAQcD
QgAEe4+kAMvnOfqJHHYkhJhLD2a4y2h2DcCF43OOEEzJP5LNoaj+bF9V0rIij4Y5
Z5z/DxFKqlIxgOqXqwRpG9Z9IKMNMAswCQYDVR0TBAIwADAKBggqhkjOPQQDAgNI
ADBFAiEAt+gVgvZ9XiA7kP1LYDv5cBxmRi1KYnU5ydE6wKuiHQMCIBXXBVr1WTfR
Oa1t0UU34C2toJylAo2dwbL0okNr4aI5
-----END CERTIFICATE-----
