Certificate:
    Data:
        Version: 3 (0x2)
        Serial Number: 4137 (0x1029)
        Signature Algorithm: ecdsa-with-SHA256
        Issuer: CN=sros2testCA
        Validity
            Not Before: Nov 22 05:40:36 2019 GMT
            Not After : Nov 19 05:40:36 2029 GMT
        Subject: CN=/sensor_msgs_image_tmp0
        Subject Public Key Info:
            Public Key Algorithm: id-ecPublicKey
                Public-Key: (256 bit)
                pub:
                    04:ca:8f:34:e6:31:6f:19:4a:a0:3d:c5:b0:41:87:
                    46:7f:12:f3:eb:58:5e:24:81:70:d8:bc:42:ff:e2:
                    39:3d:91:b4:eb:c5:4f:45:a1:97:67:67:b3:df:a1:
                    bc:62:4c:fb:41:42:39:3a:57:76:96:c6:78:92:59:
                    f2:c2:26:51:17
                ASN1 OID: prime256v1
                NIST CURVE: P-256
        X509v3 extensions:
            X509v3 Basic Constraints: 
                CA:FALSE
    Signature Algorithm: ecdsa-with-SHA256
         30:45:02:21:00:de:27:fb:ef:c8:20:87:43:d9:43:d6:e4:eb:
         7e:9a:bb:83:c9:2f:24:13:3a:38:6e:de:ed:d2:d5:d9:e0:d0:
         3f:02:20:05:95:43:34:a1:36:80:fb:5f:5a:f0:3d:44:11:74:
         89:37:79:e2:66:9a:81:7a:66:b3:7f:ca:1b:6b:c3:88:f4
-----BEGIN CERTIFICATE-----
MIIBNDCB26ADAgECAgIQKTAKBggqhkjOPQQDAjAWMRQwEgYDVQQDDAtzcm9zMnRl
c3RDQTAeFw0xOTExMjIwNTQwMzZaFw0yOTExMTkwNTQwMzZaMCIxIDAeBgNVBAMM
Fy9zZW5zb3JfbXNnc19pbWFnZV90bXAwMFkwEwYHKoZIzj0CAQYIKoZIzj0DAQcD
QgAEyo805jFvGUqgPcWwQYdGfxLz61heJIFw2LxC/+I5PZG068VPRaGXZ2ez36G8
Ykz7QUI5Old2lsZ4klnywiZRF6MNMAswCQYDVR0TBAIwADAKBggqhkjOPQQDAgNI
ADBFAiEA3if778ggh0PZQ9bk636au4PJLyQTOjhu3u3S1dng0D8CIAWVQzShNoD7
X1rwPUQRdIk3eeJmmoF6ZrN/yhtrw4j0
-----END CERTIFICATE-----
