Certificate:
    Data:
        Version: 3 (0x2)
        Serial Number: 4138 (0x102a)
        Signature Algorithm: ecdsa-with-SHA256
        Issuer: CN=sros2testCA
        Validity
            Not Before: Nov 22 05:42:58 2019 GMT
            Not After : Nov 19 05:42:58 2029 GMT
        Subject: CN=/sensor_msgs_image_tmp0
        Subject Public Key Info:
            Public Key Algorithm: id-ecPublicKey
                Public-Key: (256 bit)
                pub:
                    04:88:41:fe:ab:31:d0:ba:45:e3:bf:d3:d8:6b:a2:
                    16:0c:7c:77:8f:06:70:f7:61:5a:6d:cf:0a:52:f7:
                    b9:f4:e5:ab:d6:8c:a4:f0:ec:da:09:60:25:f5:14:
                    71:8a:31:44:9b:ae:7d:d9:a6:7a:79:2d:c6:7a:89:
                    be:2a:49:c8:fc
                ASN1 OID: prime256v1
                NIST CURVE: P-256
        X509v3 extensions:
            X509v3 Basic Constraints: 
                CA:FALSE
    Signature Algorithm: ecdsa-with-SHA256
         30:44:02:20:67:86:55:ee:7a:fe:62:0a:21:8e:81:f7:13:e6:
         70:e4:5a:55:fe:95:03:76:1f:8e:c6:e1:9d:e4:f2:32:83:ed:
         02:20:0e:5f:bd:a3:32:c3:0f:42:5e:aa:ff:92:2c:c1:1b:ff:
         81:ca:6b:d6:77:56:53:df:ea:bb:26:2b:a7:d1:55:1b
-----BEGIN CERTIFICATE-----
MIIBMzCB26ADAgECAgIQKjAKBggqhkjOPQQDAjAWMRQwEgYDVQQDDAtzcm9zMnRl
c3RDQTAeFw0xOTExMjIwNTQyNThaFw0yOTExMTkwNTQyNThaMCIxIDAeBgNVBAMM
Fy9zZW5zb3JfbXNnc19pbWFnZV90bXAwMFkwEwYHKoZIzj0CAQYIKoZIzj0DAQcD
QgAEiEH+qzHQukXjv9PYa6IWDHx3jwZw92Fabc8KUve59OWr1oyk8OzaCWAl9RRx
ijFEm6592aZ6eS3Geom+KknI/KMNMAswCQYDVR0TBAIwADAKBggqhkjOPQQDAgNH
ADBEAiBnhlXuev5iCiGOgfcT5nDkWlX+lQN2H47G4Z3k8jKD7QIgDl+9ozLDD0Je
qv+SLMEb/4HKa9Z3VlPf6rsmK6fRVRs=
-----END CERTIFICATE-----
