Certificate:
    Data:
        Version: 3 (0x2)
        Serial Number: 4139 (0x102b)
        Signature Algorithm: ecdsa-with-SHA256
        Issuer: CN=sros2testCA
        Validity
            Not Before: Nov 22 05:43:38 2019 GMT
            Not After : Nov 19 05:43:38 2029 GMT
        Subject: CN=/sensor_msgs_image_tmp0
        Subject Public Key Info:
            Public Key Algorithm: id-ecPublicKey
                Public-Key: (256 bit)
                pub:
                    04:59:02:51:b7:44:89:9a:90:78:ab:49:fa:5a:03:
                    1c:9c:0b:4c:ef:83:3b:21:02:03:fa:15:a1:81:a5:
                    5a:99:1d:25:0d:51:1d:49:61:84:08:83:78:6d:22:
                    90:7e:ee:7d:36:5c:8c:4c:4f:49:40:b8:ca:1b:bc:
                    eb:30:b3:b6:81
                ASN1 OID: prime256v1
                NIST CURVE: P-256
        X509v3 extensions:
            X509v3 Basic Constraints: 
                CA:FALSE
    Signature Algorithm: ecdsa-with-SHA256
         30:46:02:21:00:d4:43:70:8d:07:b2:b2:0b:b4:16:61:0a:13:
         38:a6:58:81:fc:4a:21:34:70:1e:46:66:8f:9f:a2:c4:b4:e2:
         42:02:21:00:a9:b6:b5:03:24:14:b1:fb:78:87:6c:02:5b:3d:
         23:ec:6a:01:f9:71:71:03:26:d0:b2:55:90:df:73:2f:e2:19
-----BEGIN CERTIFICATE-----
MIIBNTCB26ADAgECAgIQKzAKBggqhkjOPQQDAjAWMRQwEgYDVQQDDAtzcm9zMnRl
c3RDQTAeFw0xOTExMjIwNTQzMzhaFw0yOTExMTkwNTQzMzhaMCIxIDAeBgNVBAMM
Fy9zZW5zb3JfbXNnc19pbWFnZV90bXAwMFkwEwYHKoZIzj0CAQYIKoZIzj0DAQcD
QgAEWQJRt0SJmpB4q0n6WgMcnAtM74M7IQID+hWhgaVamR0lDVEdSWGECIN4bSKQ
fu59NlyMTE9JQLjKG7zrMLO2gaMNMAswCQYDVR0TBAIwADAKBggqhkjOPQQDAgNJ
ADBGAiEA1ENwjQeysgu0FmEKEzimWIH8SiE0cB5GZo+fosS04kICIQCptrUDJBSx
+3iHbAJbPSPsagH5cXEDJtCyVZDfcy/iGQ==
-----END CERTIFICATE-----
