Certificate:
    Data:
        Version: 3 (0x2)
        Serial Number: 4140 (0x102c)
        Signature Algorithm: ecdsa-with-SHA256
        Issuer: CN=sros2testCA
        Validity
            Not Before: Nov 22 05:45:53 2019 GMT
            Not After : Nov 19 05:45:53 2029 GMT
        Subject: CN=/sensor_msgs_image_tmp0
        Subject Public Key Info:
            Public Key Algorithm: id-ecPublicKey
                Public-Key: (256 bit)
                pub:
                    04:0f:28:2a:a2:6d:4f:f9:ab:e9:fe:e7:d7:06:31:
                    3d:34:41:8a:d2:de:7e:76:c8:3b:8a:80:d7:9a:d0:
                    48:95:7f:14:9d:63:24:77:b9:0a:67:fe:c7:6d:41:
                    00:dc:05:cc:d9:cf:c0:d3:c2:35:33:fc:92:e9:c9:
                    2a:f6:72:1e:6c
                ASN1 OID: prime256v1
                NIST CURVE: P-256
        X509v3 extensions:
            X509v3 Basic Constraints: 
                CA:FALSE
    Signature Algorithm: ecdsa-with-SHA256
         30:44:02:20:68:f1:b6:a8:f4:4e:45:2e:29:6e:ea:f9:c9:7a:
         3d:2f:cc:d4:7c:e1:3e:e9:ec:12:97:20:f5:1d:1e:f4:60:c1:
         02:20:0f:f1:3a:e9:7b:80:4d:fd:f5:26:b8:bb:d0:20:8b:76:
         c4:49:10:19:db:b5:fb:00:e9:5e:92:41:93:89:af:be
-----BEGIN CERTIFICATE-----
MIIBMzCB26ADAgECAgIQLDAKBggqhkjOPQQDAjAWMRQwEgYDVQQDDAtzcm9zMnRl
c3RDQTAeFw0xOTExMjIwNTQ1NTNaFw0yOTExMTkwNTQ1NTNaMCIxIDAeBgNVBAMM
Fy9zZW5zb3JfbXNnc19pbWFnZV90bXAwMFkwEwYHKoZIzj0CAQYIKoZIzj0DAQcD
QgAEDygqom1P+avp/ufXBjE9NEGK0t5+dsg7ioDXmtBIlX8UnWMkd7kKZ/7HbUEA
3AXM2c/A08I1M/yS6ckq9nIebKMNMAswCQYDVR0TBAIwADAKBggqhkjOPQQDAgNH
ADBEAiBo8bao9E5FLilu6vnJej0vzNR84T7p7BKXIPUdHvRgwQIgD/E66XuATf31
Jri70CCLdsRJEBnbtfsA6V6SQZOJr74=
-----END CERTIFICATE-----
