Certificate:
    Data:
        Version: 3 (0x2)
        Serial Number: 4141 (0x102d)
        Signature Algorithm: ecdsa-with-SHA256
        Issuer: CN=sros2testCA
        Validity
            Not Before: Nov 22 05:47:12 2019 GMT
            Not After : Nov 19 05:47:12 2029 GMT
        Subject: CN=/sensor_msgs_image_tmp0
        Subject Public Key Info:
            Public Key Algorithm: id-ecPublicKey
                Public-Key: (256 bit)
                pub:
                    04:ef:fd:35:fb:f4:1e:a5:b7:7e:d2:5f:22:96:4e:
                    d3:2b:a4:92:f3:3c:b9:91:ba:65:e2:68:5f:1d:28:
                    6f:70:b3:8a:cb:c1:4e:c0:fc:e6:50:d3:d6:9f:d9:
                    a2:4c:41:ab:43:4b:91:a5:32:af:b7:5f:e5:73:f0:
                    35:3a:78:63:4c
                ASN1 OID: prime256v1
                NIST CURVE: P-256
        X509v3 extensions:
            X509v3 Basic Constraints: 
                CA:FALSE
    Signature Algorithm: ecdsa-with-SHA256
         30:45:02:21:00:e8:b1:f5:71:4b:d5:9e:45:62:f5:4c:4a:6b:
         a5:37:7c:1c:ff:8c:e0:eb:8d:35:08:ae:b2:c6:71:2e:8f:c4:
         fb:02:20:31:70:f6:9d:0e:a4:d0:93:14:dd:e8:b2:32:f1:99:
         43:11:c3:29:9d:43:99:14:c3:0c:e2:97:9c:a9:64:90:a8
-----BEGIN CERTIFICATE-----
MIIBNDCB26ADAgECAgIQLTAKBggqhkjOPQQDAjAWMRQwEgYDVQQDDAtzcm9zMnRl
c3RDQTAeFw0xOTExMjIwNTQ3MTJaFw0yOTExMTkwNTQ3MTJaMCIxIDAeBgNVBAMM
Fy9zZW5zb3JfbXNnc19pbWFnZV90bXAwMFkwEwYHKoZIzj0CAQYIKoZIzj0DAQcD
QgAE7/01+/Qepbd+0l8ilk7TK6SS8zy5kbpl4mhfHShvcLOKy8FOwPzmUNPWn9mi
TEGrQ0uRpTKvt1/lc/A1OnhjTKMNMAswCQYDVR0TBAIwADAKBggqhkjOPQQDAgNI
ADBFAiEA6LH1cUvVnkVi9UxKa6U3fBz/jODrjTUIrrLGcS6PxPsCIDFw9p0OpNCT
FN3osjLxmUMRwymdQ5kUwwzil5ypZJCo
-----END CERTIFICATE-----
