Certificate:
    Data:
        Version: 3 (0x2)
        Serial Number: 4142 (0x102e)
        Signature Algorithm: ecdsa-with-SHA256
        Issuer: CN=sros2testCA
        Validity
            Not Before: Nov 22 05:47:15 2019 GMT
            Not After : Nov 19 05:47:15 2029 GMT
        Subject: CN=/sensor_msgs_image_tmp1
        Subject Public Key Info:
            Public Key Algorithm: id-ecPublicKey
                Public-Key: (256 bit)
                pub:
                    04:94:10:b1:92:79:77:ba:ea:59:b3:69:34:aa:c0:
                    bc:bb:e1:4b:f0:b8:8c:13:64:f8:1f:eb:d8:18:0d:
                    e0:a7:f7:1b:d9:67:67:f4:ce:86:15:d9:c5:b7:f0:
                    e5:1e:db:83:67:a0:d1:50:bc:22:c5:58:73:ff:80:
                    f5:73:d9:df:11
                ASN1 OID: prime256v1
                NIST CURVE: P-256
        X509v3 extensions:
            X509v3 Basic Constraints: 
                CA:FALSE
    Signature Algorithm: ecdsa-with-SHA256
         30:45:02:20:50:33:b4:d3:29:e8:1c:44:59:1e:a1:fa:32:0a:
         54:fa:c8:8d:cb:85:1c:03:9f:04:8f:14:35:2d:93:fd:3f:9d:
         02:21:00:b3:7e:b3:d5:c7:ef:48:69:50:81:29:88:db:30:4b:
         ef:89:13:0f:f7:4a:2e:94:e3:a8:c5:9c:b1:f4:a8:01:fd
-----BEGIN CERTIFICATE-----
MIIBNDCB26ADAgECAgIQLjAKBggqhkjOPQQDAjAWMRQwEgYDVQQDDAtzcm9zMnRl
c3RDQTAeFw0xOTExMjIwNTQ3MTVaFw0yOTExMTkwNTQ3MTVaMCIxIDAeBgNVBAMM
Fy9zZW5zb3JfbXNnc19pbWFnZV90bXAxMFkwEwYHKoZIzj0CAQYIKoZIzj0DAQcD
QgAElBCxknl3uupZs2k0qsC8u+FL8LiME2T4H+vYGA3gp/cb2Wdn9M6GFdnFt/Dl
HtuDZ6DRULwixVhz/4D1c9nfEaMNMAswCQYDVR0TBAIwADAKBggqhkjOPQQDAgNI
ADBFAiBQM7TTKegcRFkeofoyClT6yI3LhRwDnwSPFDUtk/0/nQIhALN+s9XH70hp
UIEpiNswS++JEw/3Si6U46jFnLH0qAH9
-----END CERTIFICATE-----
