Certificate:
    Data:
        Version: 3 (0x2)
        Serial Number: 4143 (0x102f)
        Signature Algorithm: ecdsa-with-SHA256
        Issuer: CN=sros2testCA
        Validity
            Not Before: Nov 22 06:17:28 2019 GMT
            Not After : Nov 19 06:17:28 2029 GMT
        Subject: CN=/sensor_msgs_image_tmp0
        Subject Public Key Info:
            Public Key Algorithm: id-ecPublicKey
                Public-Key: (256 bit)
                pub:
                    04:39:c5:9f:8c:ef:a1:28:74:c3:26:31:be:69:7e:
                    89:ea:55:9a:cf:32:ff:c5:d9:1b:73:af:4c:3c:36:
                    24:95:1f:d9:11:13:02:86:06:32:2e:ae:55:3f:7a:
                    b1:f6:42:5d:d3:d0:4a:ae:b1:cf:8a:63:4f:6a:06:
                    be:91:3a:90:e4
                ASN1 OID: prime256v1
                NIST CURVE: P-256
        X509v3 extensions:
            X509v3 Basic Constraints: 
                CA:FALSE
    Signature Algorithm: ecdsa-with-SHA256
         30:45:02:20:27:11:54:b1:7b:cf:c1:5f:e2:4e:18:a7:f3:12:
         8a:8d:d8:ae:cd:d7:e7:29:9c:0b:bb:1e:cb:5e:48:65:7b:76:
         02:21:00:f9:39:e0:67:17:3f:1b:21:7a:6b:c9:d3:6e:bc:99:
         19:1b:bc:e9:9b:2b:d2:e1:24:a8:60:76:87:9d:68:6d:3e
-----BEGIN CERTIFICATE-----
MIIBNDCB26ADAgECAgIQLzAKBggqhkjOPQQDAjAWMRQwEgYDVQQDDAtzcm9zMnRl
c3RDQTAeFw0xOTExMjIwNjE3MjhaFw0yOTExMTkwNjE3MjhaMCIxIDAeBgNVBAMM
Fy9zZW5zb3JfbXNnc19pbWFnZV90bXAwMFkwEwYHKoZIzj0CAQYIKoZIzj0DAQcD
QgAEOcWfjO+hKHTDJjG+aX6J6lWazzL/xdkbc69MPDYklR/ZERMChgYyLq5VP3qx
9kJd09BKrrHPimNPaga+kTqQ5KMNMAswCQYDVR0TBAIwADAKBggqhkjOPQQDAgNI
ADBFAiAnEVSxe8/BX+JOGKfzEoqN2K7N1+cpnAu7HsteSGV7dgIhAPk54GcXPxsh
emvJ0268mRkbvOmbK9LhJKhgdoedaG0+
-----END CERTIFICATE-----
