Certificate:
    Data:
        Version: 3 (0x2)
        Serial Number: 4144 (0x1030)
        Signature Algorithm: ecdsa-with-SHA256
        Issuer: CN=sros2testCA
        Validity
            Not Before: Nov 22 06:18:13 2019 GMT
            Not After : Nov 19 06:18:13 2029 GMT
        Subject: CN=/sensor_msgs_image_tmp0
        Subject Public Key Info:
            Public Key Algorithm: id-ecPublicKey
                Public-Key: (256 bit)
                pub:
                    04:08:8f:15:e8:45:85:b2:45:4f:21:1c:97:af:9b:
                    b6:1d:0c:e5:a9:fc:52:3d:d1:fa:04:4b:f8:d3:ce:
                    34:7e:70:bb:17:9b:ba:46:0c:3f:e7:72:d2:70:a5:
                    db:ac:25:4f:31:37:32:96:41:b1:6f:0b:96:5b:0a:
                    86:27:d1:39:f9
                ASN1 OID: prime256v1
                NIST CURVE: P-256
        X509v3 extensions:
            X509v3 Basic Constraints: 
                CA:FALSE
    Signature Algorithm: ecdsa-with-SHA256
         30:46:02:21:00:9a:75:a5:46:1d:fc:fa:7d:4d:0c:7a:49:b4:
         43:2e:31:c8:bb:f5:e7:27:2c:70:77:18:e0:6a:9c:23:35:6b:
         7a:02:21:00:ed:93:51:ad:10:92:f6:cd:dc:4d:f9:73:68:52:
         1a:1e:5b:3d:0b:06:d1:68:b7:61:b4:80:08:e4:ae:80:9a:ef
-----BEGIN CERTIFICATE-----
MIIBNTCB26ADAgECAgIQMDAKBggqhkjOPQQDAjAWMRQwEgYDVQQDDAtzcm9zMnRl
c3RDQTAeFw0xOTExMjIwNjE4MTNaFw0yOTExMTkwNjE4MTNaMCIxIDAeBgNVBAMM
Fy9zZW5zb3JfbXNnc19pbWFnZV90bXAwMFkwEwYHKoZIzj0CAQYIKoZIzj0DAQcD
QgAECI8V6EWFskVPIRyXr5u2HQzlqfxSPdH6BEv40840fnC7F5u6Rgw/53LScKXb
rCVPMTcylkGxbwuWWwqGJ9E5+aMNMAswCQYDVR0TBAIwADAKBggqhkjOPQQDAgNJ
ADBGAiEAmnWlRh38+n1NDHpJtEMuMci79ecnLHB3GOBqnCM1a3oCIQDtk1GtEJL2
zdxN+XNoUhoeWz0LBtFot2G0gAjkroCa7w==
-----END CERTIFICATE-----
