Certificate:
    Data:
        Version: 3 (0x2)
        Serial Number: 4145 (0x1031)
        Signature Algorithm: ecdsa-with-SHA256
        Issuer: CN=sros2testCA
        Validity
            Not Before: Nov 23 14:23:15 2019 GMT
            Not After : Nov 20 14:23:15 2029 GMT
        Subject: CN=/std_msgs_string
        Subject Public Key Info:
            Public Key Algorithm: id-ecPublicKey
                Public-Key: (256 bit)
                pub:
                    04:c7:c7:26:5c:5a:37:cd:41:e8:e4:55:c8:c9:27:
                    a2:05:2e:ce:92:af:6a:3f:7f:de:1e:59:24:52:8b:
                    17:6d:8e:97:b7:a0:c7:51:15:39:44:37:0c:1a:cf:
                    79:16:2e:c3:97:e2:78:89:62:51:ad:37:4e:a3:d3:
                    f2:f9:0f:82:50
                ASN1 OID: prime256v1
                NIST CURVE: P-256
        X509v3 extensions:
            X509v3 Basic Constraints: 
                CA:FALSE
    Signature Algorithm: ecdsa-with-SHA256
         30:45:02:21:00:ee:d7:8c:6a:0a:9d:36:84:e4:79:8e:78:9d:
         85:4f:96:6e:2f:a9:29:b7:58:d9:94:76:a9:81:16:59:5b:80:
         32:02:20:6d:07:36:25:10:da:e5:95:f4:3f:e9:8a:42:38:b2:
         6e:ec:23:09:4a:83:f3:ae:49:cd:13:f7:8b:ca:1a:27:fa
-----BEGIN CERTIFICATE-----
MIIBLTCB1KADAgECAgIQMTAKBggqhkjOPQQDAjAWMRQwEgYDVQQDDAtzcm9zMnRl
c3RDQTAeFw0xOTExMjMxNDIzMTVaFw0yOTExMjAxNDIzMTVaMBsxGTAXBgNVBAMM
EC9zdGRfbXNnc19zdHJpbmcwWTATBgcqhkjOPQIBBggqhkjOPQMBBwNCAATHxyZc
WjfNQejkVcjJJ6IFLs6Sr2o/f94eWSRSixdtjpe3oMdRFTlENwwaz3kWLsOX4niJ
YlGtN06j0/L5D4JQow0wCzAJBgNVHRMEAjAAMAoGCCqGSM49BAMCA0gAMEUCIQDu
14xqCp02hOR5jnidhU+Wbi+pKbdY2ZR2qYEWWVuAMgIgbQc2JRDa5ZX0P+mKQjiy
buwjCUqD865JzRP3i8oaJ/o=
-----END CERTIFICATE-----
