Certificate:
    Data:
        Version: 3 (0x2)
        Serial Number: 4146 (0x1032)
        Signature Algorithm: ecdsa-with-SHA256
        Issuer: CN=sros2testCA
        Validity
            Not Before: Nov 23 18:01:46 2019 GMT
            Not After : Nov 20 18:01:46 2029 GMT
        Subject: CN=/std_msgs_string_tmp0
        Subject Public Key Info:
            Public Key Algorithm: id-ecPublicKey
                Public-Key: (256 bit)
                pub:
                    04:ae:26:ad:8f:07:52:d8:06:8a:43:e1:2b:d5:dd:
                    40:96:b2:f4:9a:13:2f:97:a0:6a:ce:1c:ca:4c:c7:
                    63:92:50:0d:19:c3:ea:8a:2b:b9:ea:60:aa:52:ff:
                    73:7e:a8:62:e5:68:21:15:0e:2e:ed:b0:e0:71:b7:
                    f5:28:30:64:e8
                ASN1 OID: prime256v1
                NIST CURVE: P-256
        X509v3 extensions:
            X509v3 Basic Constraints: 
                CA:FALSE
    Signature Algorithm: ecdsa-with-SHA256
         30:45:02:20:36:37:49:2b:5a:15:b8:78:c0:31:5f:dc:05:a9:
         07:8b:d5:d2:eb:3c:e1:5e:11:88:0e:35:27:4b:fa:fb:2b:92:
         02:21:00:a4:61:5a:d6:d8:4c:45:72:1d:04:f9:ef:2f:6a:64:
         8f:58:57:9d:75:43:86:e9:82:91:f7:da:a4:93:1c:3f:cd
-----BEGIN CERTIFICATE-----
MIIBMjCB2aADAgECAgIQMjAKBggqhkjOPQQDAjAWMRQwEgYDVQQDDAtzcm9zMnRl
c3RDQTAeFw0xOTExMjMxODAxNDZaFw0yOTExMjAxODAxNDZaMCAxHjAcBgNVBAMM
FS9zdGRfbXNnc19zdHJpbmdfdG1wMDBZMBMGByqGSM49AgEGCCqGSM49AwEHA0IA
BK4mrY8HUtgGikPhK9XdQJay9JoTL5egas4cykzHY5JQDRnD6ooruepgqlL/c36o
YuVoIRUOLu2w4HG39SgwZOijDTALMAkGA1UdEwQCMAAwCgYIKoZIzj0EAwIDSAAw
RQIgNjdJK1oVuHjAMV/cBakHi9XS6zzhXhGIDjUnS/r7K5ICIQCkYVrW2ExFch0E
+e8vamSPWFeddUOG6YKR99qkkxw/zQ==
-----END CERTIFICATE-----
