Certificate:
    Data:
        Version: 3 (0x2)
        Serial Number: 4147 (0x1033)
        Signature Algorithm: ecdsa-with-SHA256
        Issuer: CN=sros2testCA
        Validity
            Not Before: Nov 23 18:14:04 2019 GMT
            Not After : Nov 20 18:14:04 2029 GMT
        Subject: CN=/sensor_msgs_image_tmp0
        Subject Public Key Info:
            Public Key Algorithm: id-ecPublicKey
                Public-Key: (256 bit)
                pub:
                    04:33:c2:ea:57:0f:42:b9:60:44:ba:59:9a:4b:e8:
                    ca:28:6d:37:dd:21:38:53:3b:ee:55:2a:b1:35:59:
                    d8:17:b5:62:14:28:d8:35:1c:ec:23:e3:dc:29:c3:
                    9d:1a:c7:4c:75:97:d2:62:6d:b5:08:cd:69:3a:23:
                    0f:98:2f:33:e7
                ASN1 OID: prime256v1
                NIST CURVE: P-256
        X509v3 extensions:
            X509v3 Basic Constraints: 
                CA:FALSE
    Signature Algorithm: ecdsa-with-SHA256
         30:46:02:21:00:d5:3d:80:f4:19:76:45:ba:0d:4a:d4:f5:b1:
         29:00:ef:08:d4:ca:84:e9:f8:6d:ba:7c:e7:1e:bf:15:ac:b0:
         d6:02:21:00:a7:9a:3b:0a:bf:cb:49:a1:5a:13:8f:e5:82:3c:
         0f:e0:92:6c:23:f4:8d:14:11:6b:07:9c:88:25:4f:8e:ea:d2
-----BEGIN CERTIFICATE-----
MIIBNTCB26ADAgECAgIQMzAKBggqhkjOPQQDAjAWMRQwEgYDVQQDDAtzcm9zMnRl
c3RDQTAeFw0xOTExMjMxODE0MDRaFw0yOTExMjAxODE0MDRaMCIxIDAeBgNVBAMM
Fy9zZW5zb3JfbXNnc19pbWFnZV90bXAwMFkwEwYHKoZIzj0CAQYIKoZIzj0DAQcD
QgAEM8LqVw9CuWBEulmaS+jKKG033SE4UzvuVSqxNVnYF7ViFCjYNRzsI+PcKcOd
GsdMdZfSYm21CM1pOiMPmC8z56MNMAswCQYDVR0TBAIwADAKBggqhkjOPQQDAgNJ
ADBGAiEA1T2A9Bl2RboNStT1sSkA7wjUyoTp+G26fOcevxWssNYCIQCnmjsKv8tJ
oVoTj+WCPA/gkmwj9I0UEWsHnIglT47q0g==
-----END CERTIFICATE-----
