Certificate:
    Data:
        Version: 3 (0x2)
        Serial Number: 4148 (0x1034)
        Signature Algorithm: ecdsa-with-SHA256
        Issuer: CN=sros2testCA
        Validity
            Not Before: Nov 23 18:15:59 2019 GMT
            Not After : Nov 20 18:15:59 2029 GMT
        Subject: CN=/sensor_msgs_image_tmp0
        Subject Public Key Info:
            Public Key Algorithm: id-ecPublicKey
                Public-Key: (256 bit)
                pub:
                    04:81:ab:f2:45:73:68:88:dd:9c:f0:0b:45:1b:49:
                    b6:8e:f2:4b:05:4b:d8:43:7d:e0:b8:82:b7:f0:c7:
                    40:a8:61:c7:cc:2a:8d:b9:20:35:05:8c:76:ad:0d:
                    b2:2c:95:f3:32:d4:c2:70:a6:fe:09:51:a0:00:9c:
                    17:97:88:4c:93
                ASN1 OID: prime256v1
                NIST CURVE: P-256
        X509v3 extensions:
            X509v3 Basic Constraints: 
                CA:FALSE
    Signature Algorithm: ecdsa-with-SHA256
         30:46:02:21:00:f7:f1:10:2f:0c:87:80:80:d4:52:a7:4b:db:
         8c:28:bb:78:c9:a6:d8:fc:a1:8f:8c:68:29:0b:fd:ac:ac:44:
         15:02:21:00:81:22:9b:6a:99:f0:b3:2e:d3:4d:32:7a:1f:ea:
         9e:ba:ff:48:61:0f:12:d0:6c:38:34:f1:48:b4:b3:11:95:eb
-----BEGIN CERTIFICATE-----
MIIBNTCB26ADAgECAgIQNDAKBggqhkjOPQQDAjAWMRQwEgYDVQQDDAtzcm9zMnRl
c3RDQTAeFw0xOTExMjMxODE1NTlaFw0yOTExMjAxODE1NTlaMCIxIDAeBgNVBAMM
Fy9zZW5zb3JfbXNnc19pbWFnZV90bXAwMFkwEwYHKoZIzj0CAQYIKoZIzj0DAQcD
QgAEgavyRXNoiN2c8AtFG0m2jvJLBUvYQ33guIK38MdAqGHHzCqNuSA1BYx2rQ2y
LJXzMtTCcKb+CVGgAJwXl4hMk6MNMAswCQYDVR0TBAIwADAKBggqhkjOPQQDAgNJ
ADBGAiEA9/EQLwyHgIDUUqdL24wou3jJptj8oY+MaCkL/aysRBUCIQCBIptqmfCz
LtNNMnof6p66/0hhDxLQbDg08Ui0sxGV6w==
-----END CERTIFICATE-----
