Certificate:
    Data:
        Version: 3 (0x2)
        Serial Number: 4149 (0x1035)
        Signature Algorithm: ecdsa-with-SHA256
        Issuer: CN=sros2testCA
        Validity
            Not Before: Nov 23 18:22:26 2019 GMT
            Not After : Nov 20 18:22:26 2029 GMT
        Subject: CN=/sensor_msgs_image_tmp0
        Subject Public Key Info:
            Public Key Algorithm: id-ecPublicKey
                Public-Key: (256 bit)
                pub:
                    04:ad:5d:d9:1b:c4:77:22:29:68:fd:df:33:ad:fc:
                    03:2d:b9:e4:84:77:f0:41:f7:96:aa:0d:d6:5f:de:
                    a0:fa:38:fa:dd:06:e1:8e:48:fc:61:48:d7:e9:53:
                    84:b6:f4:18:59:96:f6:ad:67:b4:b2:e3:2c:d4:8a:
                    2d:bf:ce:eb:c9
                ASN1 OID: prime256v1
                NIST CURVE: P-256
        X509v3 extensions:
            X509v3 Basic Constraints: 
                CA:FALSE
    Signature Algorithm: ecdsa-with-SHA256
         30:46:02:21:00:e2:d8:f2:ad:5d:b0:67:5f:41:0f:2b:97:d2:
         9d:c6:dd:f9:b8:ce:3a:53:06:d9:41:aa:d0:21:20:30:52:70:
         6b:02:21:00:ed:18:7f:3e:01:25:23:33:d3:e8:f3:5c:15:84:
         11:1e:79:ae:35:a3:a2:0d:3d:1e:21:e8:78:35:b7:73:81:ce
-----BEGIN CERTIFICATE-----
MIIBNTCB26ADAgECAgIQNTAKBggqhkjOPQQDAjAWMRQwEgYDVQQDDAtzcm9zMnRl
c3RDQTAeFw0xOTExMjMxODIyMjZaFw0yOTExMjAxODIyMjZaMCIxIDAeBgNVBAMM
Fy9zZW5zb3JfbXNnc19pbWFnZV90bXAwMFkwEwYHKoZIzj0CAQYIKoZIzj0DAQcD
QgAErV3ZG8R3Iilo/d8zrfwDLbnkhHfwQfeWqg3WX96g+jj63Qbhjkj8YUjX6VOE
tvQYWZb2rWe0suMs1Iotv87ryaMNMAswCQYDVR0TBAIwADAKBggqhkjOPQQDAgNJ
ADBGAiEA4tjyrV2wZ19BDyuX0p3G3fm4zjpTBtlBqtAhIDBScGsCIQDtGH8+ASUj
M9Po81wVhBEeea41o6INPR4h6Hg1t3OBzg==
-----END CERTIFICATE-----
