Certificate:
    Data:
        Version: 3 (0x2)
        Serial Number: 4150 (0x1036)
        Signature Algorithm: ecdsa-with-SHA256
        Issuer: CN=sros2testCA
        Validity
            Not Before: Nov 23 18:23:33 2019 GMT
            Not After : Nov 20 18:23:33 2029 GMT
        Subject: CN=/sensor_msgs_image_tmp0
        Subject Public Key Info:
            Public Key Algorithm: id-ecPublicKey
                Public-Key: (256 bit)
                pub:
                    04:e2:78:26:b2:9e:59:80:43:c0:37:8a:30:83:cd:
                    72:8a:ae:d9:8f:c3:e4:cf:67:e2:92:7a:d0:d9:ac:
                    91:c7:96:b0:49:86:6b:99:81:6a:6b:71:1a:4f:87:
                    b4:2e:9f:bb:0a:6b:7e:72:ec:02:09:ff:68:ee:a1:
                    d8:0d:af:60:28
                ASN1 OID: prime256v1
                NIST CURVE: P-256
        X509v3 extensions:
            X509v3 Basic Constraints: 
                CA:FALSE
    Signature Algorithm: ecdsa-with-SHA256
         30:44:02:20:35:25:c4:c5:36:65:23:84:50:da:8a:1f:a3:8a:
         70:b9:d5:90:fb:d8:13:62:00:f3:db:18:1e:11:ad:16:b4:e3:
         02:20:5b:75:c5:b0:cc:39:4b:22:16:76:09:47:a6:8b:cd:60:
         39:67:20:06:82:58:9f:01:fe:78:6e:14:c3:28:d4:c7
-----BEGIN CERTIFICATE-----
MIIBMzCB26ADAgECAgIQNjAKBggqhkjOPQQDAjAWMRQwEgYDVQQDDAtzcm9zMnRl
c3RDQTAeFw0xOTExMjMxODIzMzNaFw0yOTExMjAxODIzMzNaMCIxIDAeBgNVBAMM
Fy9zZW5zb3JfbXNnc19pbWFnZV90bXAwMFkwEwYHKoZIzj0CAQYIKoZIzj0DAQcD
QgAE4ngmsp5ZgEPAN4owg81yiq7Zj8Pkz2fiknrQ2ayRx5awSYZrmYFqa3EaT4e0
Lp+7Cmt+cuwCCf9o7qHYDa9gKKMNMAswCQYDVR0TBAIwADAKBggqhkjOPQQDAgNH
ADBEAiA1JcTFNmUjhFDaih+jinC51ZD72BNiAPPbGB4RrRa04wIgW3XFsMw5SyIW
dglHpovNYDlnIAaCWJ8B/nhuFMMo1Mc=
-----END CERTIFICATE-----
