Certificate:
    Data:
        Version: 3 (0x2)
        Serial Number: 4151 (0x1037)
        Signature Algorithm: ecdsa-with-SHA256
        Issuer: CN=sros2testCA
        Validity
            Not Before: Nov 23 18:24:20 2019 GMT
            Not After : Nov 20 18:24:20 2029 GMT
        Subject: CN=/sensor_msgs_image_tmp0
        Subject Public Key Info:
            Public Key Algorithm: id-ecPublicKey
                Public-Key: (256 bit)
                pub:
                    04:63:42:b5:4d:9f:1e:6c:e4:e7:f0:57:ed:c4:cc:
                    3f:57:69:60:ec:ac:ca:89:7f:d8:34:3a:83:3c:81:
                    fd:6d:a6:01:a8:61:e8:82:58:55:6e:b7:fb:6b:96:
                    0f:05:85:6a:6d:63:5a:21:52:da:9d:1b:be:d5:41:
                    06:d6:69:34:f0
                ASN1 OID: prime256v1
                NIST CURVE: P-256
        X509v3 extensions:
            X509v3 Basic Constraints: 
                CA:FALSE
    Signature Algorithm: ecdsa-with-SHA256
         30:45:02:21:00:e0:ed:c8:ca:e8:46:10:66:a5:c0:b4:01:62:
         0d:29:28:cd:ba:63:3a:ad:70:e1:4d:6b:b7:e3:ba:59:22:92:
         c9:02:20:0f:11:a6:ee:3a:c6:d9:59:77:93:fe:13:28:99:14:
         7b:e1:df:5e:04:49:31:0c:49:e9:7e:40:cd:cc:33:60:eb
-----BEGIN CERTIFICATE-----
MIIBNDCB26ADAgECAgIQNzAKBggqhkjOPQQDAjAWMRQwEgYDVQQDDAtzcm9zMnRl
c3RDQTAeFw0xOTExMjMxODI0MjBaFw0yOTExMjAxODI0MjBaMCIxIDAeBgNVBAMM
Fy9zZW5zb3JfbXNnc19pbWFnZV90bXAwMFkwEwYHKoZIzj0CAQYIKoZIzj0DAQcD
QgAEY0K1TZ8ebOTn8FftxMw/V2lg7KzKiX/YNDqDPIH9baYBqGHoglhVbrf7a5YP
BYVqbWNaIVLanRu+1UEG1mk08KMNMAswCQYDVR0TBAIwADAKBggqhkjOPQQDAgNI
ADBFAiEA4O3IyuhGEGalwLQBYg0pKM26YzqtcOFNa7fjulkikskCIA8Rpu46xtlZ
d5P+EyiZFHvh314ESTEMSel+QM3MM2Dr
-----END CERTIFICATE-----
