Certificate:
    Data:
        Version: 3 (0x2)
        Serial Number: 4152 (0x1038)
        Signature Algorithm: ecdsa-with-SHA256
        Issuer: CN=sros2testCA
        Validity
            Not Before: Nov 23 18:24:53 2019 GMT
            Not After : Nov 20 18:24:53 2029 GMT
        Subject: CN=/sensor_msgs_image_tmp1
        Subject Public Key Info:
            Public Key Algorithm: id-ecPublicKey
                Public-Key: (256 bit)
                pub:
                    04:28:8d:81:8b:46:ad:9a:86:7b:42:9e:bd:38:6e:
                    be:6a:1e:16:dd:38:09:c1:43:2d:29:bc:a8:03:fd:
                    99:82:96:d6:15:26:d6:d3:1e:00:bd:b5:b9:b1:86:
                    03:a6:de:33:11:30:24:8e:43:16:cc:1b:b3:01:05:
                    97:d0:de:9b:59
                ASN1 OID: prime256v1
                NIST CURVE: P-256
        X509v3 extensions:
            X509v3 Basic Constraints: 
                CA:FALSE
    Signature Algorithm: ecdsa-with-SHA256
         30:45:02:20:61:72:ac:a5:3b:42:22:dc:a9:2c:b4:e4:82:f9:
         2e:15:87:dd:f8:ef:4e:c0:45:6f:e4:0c:e1:ac:5d:2e:80:37:
         02:21:00:94:62:4f:4a:bd:d4:97:8b:70:a6:8d:f8:3a:63:6a:
         14:69:68:e3:dc:ea:aa:7c:8e:e3:07:f5:47:ce:c1:cc:d6
-----BEGIN CERTIFICATE-----
MIIBNDCB26ADAgECAgIQODAKBggqhkjOPQQDAjAWMRQwEgYDVQQDDAtzcm9zMnRl
c3RDQTAeFw0xOTExMjMxODI0NTNaFw0yOTExMjAxODI0NTNaMCIxIDAeBgNVBAMM
Fy9zZW5zb3JfbXNnc19pbWFnZV90bXAxMFkwEwYHKoZIzj0CAQYIKoZIzj0DAQcD
QgAEKI2Bi0atmoZ7Qp69OG6+ah4W3TgJwUMtKbyoA/2ZgpbWFSbW0x4AvbW5sYYD
pt4zETAkjkMWzBuzAQWX0N6bWaMNMAswCQYDVR0TBAIwADAKBggqhkjOPQQDAgNI
ADBFAiBhcqylO0Ii3KkstOSC+S4Vh934707ARW/kDOGsXS6ANwIhAJRiT0q91JeL
cKaN+DpjahRpaOPc6qp8juMH9UfOwczW
-----END CERTIFICATE-----
