Certificate:
    Data:
        Version: 3 (0x2)
        Serial Number: 4153 (0x1039)
        Signature Algorithm: ecdsa-with-SHA256
        Issuer: CN=sros2testCA
        Validity
            Not Before: Nov 24 05:30:48 2019 GMT
            Not After : Nov 21 05:30:48 2029 GMT
        Subject: CN=/std_msgs_int32
        Subject Public Key Info:
            Public Key Algorithm: id-ecPublicKey
                Public-Key: (256 bit)
                pub:
                    04:4b:de:1c:47:f3:0f:3a:2f:ae:0f:d4:c6:a1:47:
                    d9:2a:05:fd:28:10:e6:fa:43:5e:16:11:c6:35:b8:
                    4b:e8:a7:cb:53:86:99:07:16:9a:f7:a0:af:c6:64:
                    29:8d:95:5d:b4:7f:ca:22:2c:7d:79:a5:03:7a:e0:
                    e2:67:fa:14:cb
                ASN1 OID: prime256v1
                NIST CURVE: P-256
        X509v3 extensions:
            X509v3 Basic Constraints: 
                CA:FALSE
    Signature Algorithm: ecdsa-with-SHA256
         30:45:02:21:00:80:6d:60:72:eb:8f:7d:3e:9c:6e:4c:62:60:
         2a:29:70:20:0b:e7:b7:08:16:6a:42:1c:7b:60:72:aa:b3:83:
         66:02:20:51:bd:e6:86:fd:4d:88:ae:cf:df:16:54:4e:00:24:
         a0:b2:bb:81:ae:b3:c7:e6:f7:5c:f4:96:a2:f8:df:11:73
-----BEGIN CERTIFICATE-----
MIIBLDCB06ADAgECAgIQOTAKBggqhkjOPQQDAjAWMRQwEgYDVQQDDAtzcm9zMnRl
c3RDQTAeFw0xOTExMjQwNTMwNDhaFw0yOTExMjEwNTMwNDhaMBoxGDAWBgNVBAMM
Dy9zdGRfbXNnc19pbnQzMjBZMBMGByqGSM49AgEGCCqGSM49AwEHA0IABEveHEfz
Dzovrg/UxqFH2SoF/SgQ5vpDXhYRxjW4S+iny1OGmQcWmvegr8ZkKY2VXbR/yiIs
fXmlA3rg4mf6FMujDTALMAkGA1UdEwQCMAAwCgYIKoZIzj0EAwIDSAAwRQIhAIBt
YHLrj30+nG5MYmAqKXAgC+e3CBZqQhx7YHKqs4NmAiBRveaG/U2Irs/fFlROACSg
sruBrrPH5vdc9Jai+N8Rcw==
-----END CERTIFICATE-----
