Certificate:
    Data:
        Version: 3 (0x2)
        Serial Number: 4154 (0x103a)
        Signature Algorithm: ecdsa-with-SHA256
        Issuer: CN=sros2testCA
        Validity
            Not Before: Nov 24 05:36:40 2019 GMT
            Not After : Nov 21 05:36:40 2029 GMT
        Subject: CN=/std_msgs_string_tmp0
        Subject Public Key Info:
            Public Key Algorithm: id-ecPublicKey
                Public-Key: (256 bit)
                pub:
                    04:63:cb:09:8f:7b:83:de:68:f6:5d:3c:b0:11:d1:
                    f1:41:80:34:65:04:93:7d:d5:a5:90:53:93:17:b5:
                    54:0f:45:96:4c:89:2c:62:18:4a:c3:55:e2:37:fa:
                    ff:1e:05:18:6e:82:d5:71:1c:bf:d2:83:c3:d3:b1:
                    26:04:e2:0b:58
                ASN1 OID: prime256v1
                NIST CURVE: P-256
        X509v3 extensions:
            X509v3 Basic Constraints: 
                CA:FALSE
    Signature Algorithm: ecdsa-with-SHA256
         30:45:02:20:16:d2:98:78:82:06:64:0f:05:97:bd:68:e4:2f:
         1e:6b:d1:db:03:50:46:e9:36:dc:ba:2f:26:88:40:ae:0c:5f:
         02:21:00:b8:9b:53:1b:d3:d6:bd:f2:35:b9:c6:ee:c5:ca:98:
         cc:83:63:87:22:1f:c8:ec:35:53:4c:f7:7a:fc:06:ee:a0
-----BEGIN CERTIFICATE-----
MIIBMjCB2aADAgECAgIQOjAKBggqhkjOPQQDAjAWMRQwEgYDVQQDDAtzcm9zMnRl
c3RDQTAeFw0xOTExMjQwNTM2NDBaFw0yOTExMjEwNTM2NDBaMCAxHjAcBgNVBAMM
FS9zdGRfbXNnc19zdHJpbmdfdG1wMDBZMBMGByqGSM49AgEGCCqGSM49AwEHA0IA
BGPLCY97g95o9l08sBHR8UGANGUEk33VpZBTkxe1VA9FlkyJLGIYSsNV4jf6/x4F
GG6C1XEcv9KDw9OxJgTiC1ijDTALMAkGA1UdEwQCMAAwCgYIKoZIzj0EAwIDSAAw
RQIgFtKYeIIGZA8Fl71o5C8ea9HbA1BG6Tbcui8miECuDF8CIQC4m1Mb09a98jW5
xu7FypjMg2OHIh/I7DVTTPd6/AbuoA==
-----END CERTIFICATE-----
