Certificate:
    Data:
        Version: 3 (0x2)
        Serial Number: 4155 (0x103b)
        Signature Algorithm: ecdsa-with-SHA256
        Issuer: CN=sros2testCA
        Validity
            Not Before: Nov 24 05:36:44 2019 GMT
            Not After : Nov 21 05:36:44 2029 GMT
        Subject: CN=/std_msgs_int32_tmp0
        Subject Public Key Info:
            Public Key Algorithm: id-ecPublicKey
                Public-Key: (256 bit)
                pub:
                    04:63:fb:7b:a3:98:78:0c:01:ef:34:aa:1d:0a:9f:
                    0d:76:6d:f6:83:85:f5:b4:53:85:5f:9a:f5:3e:d3:
                    eb:31:a1:12:a9:cc:73:c4:55:1b:77:80:e3:2f:3a:
                    37:ae:a4:20:c6:6f:6f:cb:13:a4:fe:c4:b1:62:9c:
                    b4:af:7d:49:29
                ASN1 OID: prime256v1
                NIST CURVE: P-256
        X509v3 extensions:
            X509v3 Basic Constraints: 
                CA:FALSE
    Signature Algorithm: ecdsa-with-SHA256
         30:45:02:21:00:f4:09:49:ce:7b:9e:b7:3b:0d:8a:bf:02:22:
         ed:b1:92:74:26:ae:38:4f:7d:c5:63:40:c3:ce:5c:8b:b0:80:
         50:02:20:2f:86:69:e3:b8:42:f1:7f:6c:48:4a:bb:79:41:a8:
         0b:dd:3a:88:25:5e:47:c6:ee:53:01:92:39:69:18:94:22
-----BEGIN CERTIFICATE-----
MIIBMTCB2KADAgECAgIQOzAKBggqhkjOPQQDAjAWMRQwEgYDVQQDDAtzcm9zMnRl
c3RDQTAeFw0xOTExMjQwNTM2NDRaFw0yOTExMjEwNTM2NDRaMB8xHTAbBgNVBAMM
FC9zdGRfbXNnc19pbnQzMl90bXAwMFkwEwYHKoZIzj0CAQYIKoZIzj0DAQcDQgAE
Y/t7o5h4DAHvNKodCp8Ndm32g4X1tFOFX5r1PtPrMaESqcxzxFUbd4DjLzo3rqQg
xm9vyxOk/sSxYpy0r31JKaMNMAswCQYDVR0TBAIwADAKBggqhkjOPQQDAgNIADBF
AiEA9AlJznuetzsNir8CIu2xknQmrjhPfcVjQMPOXIuwgFACIC+GaeO4QvF/bEhK
u3lBqAvdOoglXkfG7lMBkjlpGJQi
-----END CERTIFICATE-----
