Certificate:
    Data:
        Version: 3 (0x2)
        Serial Number: 4156 (0x103c)
        Signature Algorithm: ecdsa-with-SHA256
        Issuer: CN=sros2testCA
        Validity
            Not Before: Nov 24 05:36:47 2019 GMT
            Not After : Nov 21 05:36:47 2029 GMT
        Subject: CN=/std_msgs_string_tmp1
        Subject Public Key Info:
            Public Key Algorithm: id-ecPublicKey
                Public-Key: (256 bit)
                pub:
                    04:71:01:5c:f1:9d:cf:b9:f3:4c:a8:34:1b:61:8b:
                    61:35:0d:05:ce:84:d6:4a:ba:bb:09:09:d7:ab:f2:
                    3f:87:89:99:fb:67:1b:d0:32:5d:dc:61:38:43:34:
                    f9:96:f7:5e:8a:db:ea:e0:9f:57:e6:77:88:b6:a4:
                    aa:28:e4:25:7f
                ASN1 OID: prime256v1
                NIST CURVE: P-256
        X509v3 extensions:
            X509v3 Basic Constraints: 
                CA:FALSE
    Signature Algorithm: ecdsa-with-SHA256
         30:46:02:21:00:f0:47:cd:2f:36:7f:1b:2b:17:9f:5f:85:e6:
         b3:aa:0b:b4:e9:b9:51:6a:f2:0b:b5:47:95:f5:b2:8e:06:64:
         a5:02:21:00:f3:34:db:25:9e:13:1b:4d:ed:2c:28:69:d3:f8:
         54:71:3a:a7:e1:30:6f:06:d8:9a:23:28:48:d2:fd:01:e4:0a
-----BEGIN CERTIFICATE-----
MIIBMzCB2aADAgECAgIQPDAKBggqhkjOPQQDAjAWMRQwEgYDVQQDDAtzcm9zMnRl
c3RDQTAeFw0xOTExMjQwNTM2NDdaFw0yOTExMjEwNTM2NDdaMCAxHjAcBgNVBAMM
FS9zdGRfbXNnc19zdHJpbmdfdG1wMTBZMBMGByqGSM49AgEGCCqGSM49AwEHA0IA
BHEBXPGdz7nzTKg0G2GLYTUNBc6E1kq6uwkJ16vyP4eJmftnG9AyXdxhOEM0+Zb3
Xorb6uCfV+Z3iLakqijkJX+jDTALMAkGA1UdEwQCMAAwCgYIKoZIzj0EAwIDSQAw
RgIhAPBHzS82fxsrF59fheazqgu06blRavILtUeV9bKOBmSlAiEA8zTbJZ4TG03t
LChp0/hUcTqn4TBvBtiaIyhI0v0B5Ao=
-----END CERTIFICATE-----
