Certificate:
    Data:
        Version: 3 (0x2)
        Serial Number: 4157 (0x103d)
        Signature Algorithm: ecdsa-with-SHA256
        Issuer: CN=sros2testCA
        Validity
            Not Before: Nov 24 05:47:14 2019 GMT
            Not After : Nov 21 05:47:14 2029 GMT
        Subject: CN=/std_msgs_string_tmp0
        Subject Public Key Info:
            Public Key Algorithm: id-ecPublicKey
                Public-Key: (256 bit)
                pub:
                    04:fb:40:d2:74:fd:20:87:c8:9e:d2:a3:c8:ce:60:
                    86:16:3f:9d:e1:c7:8c:74:96:43:f5:7b:25:28:48:
                    e1:39:48:b4:4c:76:3c:fd:91:18:9a:b2:1f:99:05:
                    c7:87:cd:3c:ce:05:ec:fe:c6:ba:8a:74:e7:3a:da:
                    b7:e9:35:7c:14
                ASN1 OID: prime256v1
                NIST CURVE: P-256
        X509v3 extensions:
            X509v3 Basic Constraints: 
                CA:FALSE
    Signature Algorithm: ecdsa-with-SHA256
         30:46:02:21:00:b1:89:6f:3d:6a:7b:ce:ba:5b:5b:fc:2a:f1:
         55:59:78:51:e2:f1:c3:e8:ff:09:87:f8:03:e3:0d:67:99:fb:
         6f:02:21:00:88:b6:4b:89:3f:68:5c:5f:74:a9:ee:4b:3d:4a:
         ac:59:45:e8:5b:49:fc:73:da:a9:ef:39:9e:4c:7d:92:ed:2a
-----BEGIN CERTIFICATE-----
MIIBMzCB2aADAgECAgIQPTAKBggqhkjOPQQDAjAWMRQwEgYDVQQDDAtzcm9zMnRl
c3RDQTAeFw0xOTExMjQwNTQ3MTRaFw0yOTExMjEwNTQ3MTRaMCAxHjAcBgNVBAMM
FS9zdGRfbXNnc19zdHJpbmdfdG1wMDBZMBMGByqGSM49AgEGCCqGSM49AwEHA0IA
BPtA0nT9IIfIntKjyM5ghhY/neHHjHSWQ/V7JShI4TlItEx2PP2RGJqyH5kFx4fN
PM4F7P7Guop05zrat+k1fBSjDTALMAkGA1UdEwQCMAAwCgYIKoZIzj0EAwIDSQAw
RgIhALGJbz1qe866W1v8KvFVWXhR4vHD6P8Jh/gD4w1nmftvAiEAiLZLiT9oXF90
qe5LPUqsWUXoW0n8c9qp7zmeTH2S7So=
-----END CERTIFICATE-----
