Certificate:
    Data:
        Version: 3 (0x2)
        Serial Number: 4158 (0x103e)
        Signature Algorithm: ecdsa-with-SHA256
        Issuer: CN=sros2testCA
        Validity
            Not Before: Nov 24 05:47:18 2019 GMT
            Not After : Nov 21 05:47:18 2029 GMT
        Subject: CN=/std_msgs_int32_tmp0
        Subject Public Key Info:
            Public Key Algorithm: id-ecPublicKey
                Public-Key: (256 bit)
                pub:
                    04:2f:6b:5d:32:df:16:23:92:d6:e5:82:73:ef:83:
                    8f:f6:63:4d:e9:7c:3f:33:de:78:b9:c2:77:18:3b:
                    df:0f:65:14:fa:0b:92:c9:1a:0e:f3:39:01:6b:b5:
                    71:1e:94:e8:1e:29:84:49:cf:60:9e:b6:ef:f6:1f:
                    e0:c1:50:7b:8b
                ASN1 OID: prime256v1
                NIST CURVE: P-256
        X509v3 extensions:
            X509v3 Basic Constraints: 
                CA:FALSE
    Signature Algorithm: ecdsa-with-SHA256
         30:44:02:20:42:41:92:6f:85:78:69:57:2b:c3:bb:b7:63:50:
         46:59:1b:76:0c:52:a1:e5:66:3e:53:81:d1:8a:18:30:78:c2:
         02:20:4c:c5:c7:1d:2e:5f:82:08:bc:46:22:d7:1a:76:39:c4:
         d6:1f:56:bf:cb:dd:96:fd:bc:2e:4f:fe:4d:ee:be:5e
-----BEGIN CERTIFICATE-----
MIIBMDCB2KADAgECAgIQPjAKBggqhkjOPQQDAjAWMRQwEgYDVQQDDAtzcm9zMnRl
c3RDQTAeFw0xOTExMjQwNTQ3MThaFw0yOTExMjEwNTQ3MThaMB8xHTAbBgNVBAMM
FC9zdGRfbXNnc19pbnQzMl90bXAwMFkwEwYHKoZIzj0CAQYIKoZIzj0DAQcDQgAE
L2tdMt8WI5LW5YJz74OP9mNN6Xw/M954ucJ3GDvfD2UU+guSyRoO8zkBa7VxHpTo
HimESc9gnrbv9h/gwVB7i6MNMAswCQYDVR0TBAIwADAKBggqhkjOPQQDAgNHADBE
AiBCQZJvhXhpVyvDu7djUEZZG3YMUqHlZj5TgdGKGDB4wgIgTMXHHS5fggi8RiLX
GnY5xNYfVr/L3Zb9vC5P/k3uvl4=
-----END CERTIFICATE-----
