Certificate:
    Data:
        Version: 3 (0x2)
        Serial Number: 4159 (0x103f)
        Signature Algorithm: ecdsa-with-SHA256
        Issuer: CN=sros2testCA
        Validity
            Not Before: Nov 24 05:47:21 2019 GMT
            Not After : Nov 21 05:47:21 2029 GMT
        Subject: CN=/std_msgs_string_tmp1
        Subject Public Key Info:
            Public Key Algorithm: id-ecPublicKey
                Public-Key: (256 bit)
                pub:
                    04:67:39:11:ec:9d:a6:14:ee:44:ea:70:c5:3f:dc:
                    8b:d7:de:f7:99:45:88:11:e0:9a:db:29:0d:d0:43:
                    99:fc:ba:50:34:52:4f:c2:d4:5f:12:9c:5e:ed:f2:
                    48:81:1b:a7:3e:8e:3c:42:15:4d:5a:54:7e:0f:c8:
                    a5:59:63:18:9e
                ASN1 OID: prime256v1
                NIST CURVE: P-256
        X509v3 extensions:
            X509v3 Basic Constraints: 
                CA:FALSE
    Signature Algorithm: ecdsa-with-SHA256
         30:45:02:20:05:25:f2:cb:f9:0e:70:d4:fb:fd:c2:8f:35:68:
         cf:dc:fa:d9:25:7c:6b:bb:d7:44:ea:cc:35:c6:bb:bb:b5:55:
         02:21:00:9b:3d:77:01:91:64:c7:49:f5:6a:65:81:aa:66:8d:
         72:11:73:72:59:6b:cc:cd:27:41:38:3a:01:6d:4e:12:fc
-----BEGIN CERTIFICATE-----
MIIBMjCB2aADAgECAgIQPzAKBggqhkjOPQQDAjAWMRQwEgYDVQQDDAtzcm9zMnRl
c3RDQTAeFw0xOTExMjQwNTQ3MjFaFw0yOTExMjEwNTQ3MjFaMCAxHjAcBgNVBAMM
FS9zdGRfbXNnc19zdHJpbmdfdG1wMTBZMBMGByqGSM49AgEGCCqGSM49AwEHA0IA
BGc5EeydphTuROpwxT/ci9fe95lFiBHgmtspDdBDmfy6UDRST8LUXxKcXu3ySIEb
pz6OPEIVTVpUfg/IpVljGJ6jDTALMAkGA1UdEwQCMAAwCgYIKoZIzj0EAwIDSAAw
RQIgBSXyy/kOcNT7/cKPNWjP3PrZJXxru9dE6sw1xru7tVUCIQCbPXcBkWTHSfVq
ZYGqZo1yEXNyWWvMzSdBODoBbU4S/A==
-----END CERTIFICATE-----
