Certificate:
    Data:
        Version: 3 (0x2)
        Serial Number: 4160 (0x1040)
        Signature Algorithm: ecdsa-with-SHA256
        Issuer: CN=sros2testCA
        Validity
            Not Before: Nov 24 06:16:33 2019 GMT
            Not After : Nov 21 06:16:33 2029 GMT
        Subject: CN=/std_msgs_string_tmp0
        Subject Public Key Info:
            Public Key Algorithm: id-ecPublicKey
                Public-Key: (256 bit)
                pub:
                    04:d6:9f:72:bf:8b:71:af:48:8f:df:7b:7c:a5:87:
                    b9:65:d4:e8:71:67:57:be:a2:26:3f:d0:d5:79:c4:
                    42:1a:43:26:ae:08:bc:69:83:ab:09:87:d3:8a:bf:
                    00:37:90:4c:09:87:4d:00:db:27:da:b9:c0:26:a6:
                    4c:31:b8:39:18
                ASN1 OID: prime256v1
                NIST CURVE: P-256
        X509v3 extensions:
            X509v3 Basic Constraints: 
                CA:FALSE
    Signature Algorithm: ecdsa-with-SHA256
         30:46:02:21:00:e0:ff:fb:c1:a9:d2:46:e4:4d:b3:f2:57:06:
         28:22:1e:a6:13:19:f3:10:1b:b2:13:6d:50:66:df:a6:7b:5e:
         5e:02:21:00:c1:9b:5c:87:2e:a5:f1:2b:f2:77:ff:93:80:5c:
         83:61:5a:36:12:ba:1d:36:68:d5:ad:40:7c:88:4a:fd:4b:bf
-----BEGIN CERTIFICATE-----
MIIBMzCB2aADAgECAgIQQDAKBggqhkjOPQQDAjAWMRQwEgYDVQQDDAtzcm9zMnRl
c3RDQTAeFw0xOTExMjQwNjE2MzNaFw0yOTExMjEwNjE2MzNaMCAxHjAcBgNVBAMM
FS9zdGRfbXNnc19zdHJpbmdfdG1wMDBZMBMGByqGSM49AgEGCCqGSM49AwEHA0IA
BNafcr+Lca9Ij997fKWHuWXU6HFnV76iJj/Q1XnEQhpDJq4IvGmDqwmH04q/ADeQ
TAmHTQDbJ9q5wCamTDG4ORijDTALMAkGA1UdEwQCMAAwCgYIKoZIzj0EAwIDSQAw
RgIhAOD/+8Gp0kbkTbPyVwYoIh6mExnzEBuyE21QZt+me15eAiEAwZtchy6l8Svy
d/+TgFyDYVo2ErodNmjVrUB8iEr9S78=
-----END CERTIFICATE-----
