Certificate:
    Data:
        Version: 3 (0x2)
        Serial Number: 4161 (0x1041)
        Signature Algorithm: ecdsa-with-SHA256
        Issuer: CN=sros2testCA
        Validity
            Not Before: Nov 24 06:16:37 2019 GMT
            Not After : Nov 21 06:16:37 2029 GMT
        Subject: CN=/std_msgs_int32_tmp0
        Subject Public Key Info:
            Public Key Algorithm: id-ecPublicKey
                Public-Key: (256 bit)
                pub:
                    04:21:49:7d:c4:6f:55:30:fe:6c:cb:87:b8:90:df:
                    46:e6:0c:3c:40:7d:7d:f1:7d:eb:a6:cc:24:dc:89:
                    c6:e6:d0:00:66:90:2b:79:08:fb:f8:14:00:15:27:
                    78:c0:a0:be:73:62:d7:0c:9b:76:b8:9f:57:1b:ea:
                    50:36:ed:40:f4
                ASN1 OID: prime256v1
                NIST CURVE: P-256
        X509v3 extensions:
            X509v3 Basic Constraints: 
                CA:FALSE
    Signature Algorithm: ecdsa-with-SHA256
         30:46:02:21:00:ad:1d:10:84:57:e3:e5:22:37:af:a3:0d:67:
         48:92:a7:f4:b6:8e:28:3b:31:23:f4:bc:4d:0b:1d:02:56:e7:
         46:02:21:00:d1:a6:37:04:29:c2:1d:59:26:a8:72:4b:b1:13:
         e4:f7:eb:c5:af:46:67:e3:d7:cb:6c:15:a4:82:7d:1c:79:01
-----BEGIN CERTIFICATE-----
MIIBMjCB2KADAgECAgIQQTAKBggqhkjOPQQDAjAWMRQwEgYDVQQDDAtzcm9zMnRl
c3RDQTAeFw0xOTExMjQwNjE2MzdaFw0yOTExMjEwNjE2MzdaMB8xHTAbBgNVBAMM
FC9zdGRfbXNnc19pbnQzMl90bXAwMFkwEwYHKoZIzj0CAQYIKoZIzj0DAQcDQgAE
IUl9xG9VMP5sy4e4kN9G5gw8QH198X3rpswk3InG5tAAZpAreQj7+BQAFSd4wKC+
c2LXDJt2uJ9XG+pQNu1A9KMNMAswCQYDVR0TBAIwADAKBggqhkjOPQQDAgNJADBG
AiEArR0QhFfj5SI3r6MNZ0iSp/S2jig7MSP0vE0LHQJW50YCIQDRpjcEKcIdWSao
ckuxE+T368WvRmfj18tsFaSCfRx5AQ==
-----END CERTIFICATE-----
