Certificate:
    Data:
        Version: 3 (0x2)
        Serial Number: 4162 (0x1042)
        Signature Algorithm: ecdsa-with-SHA256
        Issuer: CN=sros2testCA
        Validity
            Not Before: Nov 24 06:25:32 2019 GMT
            Not After : Nov 21 06:25:32 2029 GMT
        Subject: CN=/std_msgs_string_tmp0
        Subject Public Key Info:
            Public Key Algorithm: id-ecPublicKey
                Public-Key: (256 bit)
                pub:
                    04:90:db:ec:0b:36:cb:a3:ca:53:cd:a5:aa:13:01:
                    45:0a:4c:a9:bb:bc:81:df:8f:78:59:0e:2b:2c:be:
                    40:e3:28:fb:5b:56:a4:95:cf:f9:13:dc:b3:a5:31:
                    d9:21:be:e4:f9:a2:1d:8c:51:79:14:5a:cc:10:36:
                    e3:6b:24:ef:b2
                ASN1 OID: prime256v1
                NIST CURVE: P-256
        X509v3 extensions:
            X509v3 Basic Constraints: 
                CA:FALSE
    Signature Algorithm: ecdsa-with-SHA256
         30:45:02:21:00:a9:09:8e:6e:bc:fc:af:bf:32:85:de:85:5d:
         11:50:95:a2:5e:e9:f9:4f:7c:13:b2:46:66:91:84:4c:aa:d3:
         16:02:20:65:ab:34:03:83:a8:80:59:05:41:1a:c5:f9:30:df:
         c2:a2:87:d8:37:b1:b2:07:cc:21:ba:56:d2:89:ec:63:ca
-----BEGIN CERTIFICATE-----
MIIBMjCB2aADAgECAgIQQjAKBggqhkjOPQQDAjAWMRQwEgYDVQQDDAtzcm9zMnRl
c3RDQTAeFw0xOTExMjQwNjI1MzJaFw0yOTExMjEwNjI1MzJaMCAxHjAcBgNVBAMM
FS9zdGRfbXNnc19zdHJpbmdfdG1wMDBZMBMGByqGSM49AgEGCCqGSM49AwEHA0IA
BJDb7As2y6PKU82lqhMBRQpMqbu8gd+PeFkOKyy+QOMo+1tWpJXP+RPcs6Ux2SG+
5PmiHYxReRRazBA242sk77KjDTALMAkGA1UdEwQCMAAwCgYIKoZIzj0EAwIDSAAw
RQIhAKkJjm68/K+/MoXehV0RUJWiXun5T3wTskZmkYRMqtMWAiBlqzQDg6iAWQVB
GsX5MN/CoofYN7GyB8whulbSiexjyg==
-----END CERTIFICATE-----
