Certificate:
    Data:
        Version: 3 (0x2)
        Serial Number: 4163 (0x1043)
        Signature Algorithm: ecdsa-with-SHA256
        Issuer: CN=sros2testCA
        Validity
            Not Before: Nov 24 06:25:36 2019 GMT
            Not After : Nov 21 06:25:36 2029 GMT
        Subject: CN=/std_msgs_int32_tmp0
        Subject Public Key Info:
            Public Key Algorithm: id-ecPublicKey
                Public-Key: (256 bit)
                pub:
                    04:f6:42:8f:21:79:20:14:90:7d:16:52:53:3b:db:
                    c6:c1:da:b8:43:ac:da:28:da:80:c3:9d:59:a9:70:
                    83:0a:c0:b1:78:9b:1a:37:78:6b:b3:57:86:73:3b:
                    2e:9d:84:e7:64:e4:f8:d9:cc:aa:7e:4c:7a:89:df:
                    6a:95:8a:0b:66
                ASN1 OID: prime256v1
                NIST CURVE: P-256
        X509v3 extensions:
            X509v3 Basic Constraints: 
                CA:FALSE
    Signature Algorithm: ecdsa-with-SHA256
         30:44:02:20:6d:5d:5e:b3:47:ab:64:f3:6a:1f:5f:69:41:f1:
         30:b1:35:8a:5b:c9:86:42:89:f2:63:db:a7:e1:1c:5d:6a:ba:
         02:20:3a:34:6f:23:4b:8e:46:38:9a:55:3e:6a:b9:b2:a9:dd:
         74:33:5a:04:88:10:3f:b6:88:1e:a0:5e:0c:11:cc:f1
-----BEGIN CERTIFICATE-----
MIIBMDCB2KADAgECAgIQQzAKBggqhkjOPQQDAjAWMRQwEgYDVQQDDAtzcm9zMnRl
c3RDQTAeFw0xOTExMjQwNjI1MzZaFw0yOTExMjEwNjI1MzZaMB8xHTAbBgNVBAMM
FC9zdGRfbXNnc19pbnQzMl90bXAwMFkwEwYHKoZIzj0CAQYIKoZIzj0DAQcDQgAE
9kKPIXkgFJB9FlJTO9vGwdq4Q6zaKNqAw51ZqXCDCsCxeJsaN3hrs1eGczsunYTn
ZOT42cyqfkx6id9qlYoLZqMNMAswCQYDVR0TBAIwADAKBggqhkjOPQQDAgNHADBE
AiBtXV6zR6tk82ofX2lB8TCxNYpbyYZCifJj26fhHF1qugIgOjRvI0uORjiaVT5q
ubKp3XQzWgSIED+2iB6gXgwRzPE=
-----END CERTIFICATE-----
