Certificate:
    Data:
        Version: 3 (0x2)
        Serial Number: 4164 (0x1044)
        Signature Algorithm: ecdsa-with-SHA256
        Issuer: CN=sros2testCA
        Validity
            Not Before: Nov 25 04:14:02 2019 GMT
            Not After : Nov 22 04:14:02 2029 GMT
        Subject: CN=/std_msgs_string_tmp0
        Subject Public Key Info:
            Public Key Algorithm: id-ecPublicKey
                Public-Key: (256 bit)
                pub:
                    04:67:e5:4e:65:fb:72:15:bc:19:61:79:44:9b:ea:
                    24:4d:4a:5c:7b:9d:a4:5a:bf:3b:94:c6:cb:83:49:
                    e8:45:71:eb:01:86:45:63:61:5f:c9:cb:a9:bd:9f:
                    30:a7:f7:f3:4c:7e:c5:d5:86:7b:98:7f:4c:c7:d3:
                    0f:a1:21:ab:bd
                ASN1 OID: prime256v1
                NIST CURVE: P-256
        X509v3 extensions:
            X509v3 Basic Constraints: 
                CA:FALSE
    Signature Algorithm: ecdsa-with-SHA256
         30:45:02:20:1a:b6:f1:29:a6:67:2d:9c:63:2c:c0:71:cf:8d:
         11:66:8b:20:12:62:54:ff:e3:b3:45:68:07:53:b2:6e:17:c7:
         02:21:00:ef:b8:c7:ca:7a:93:39:d2:94:8c:99:58:71:9b:d5:
         89:a4:2b:21:c0:4e:29:ee:67:de:36:c4:ff:d9:59:eb:2a
-----BEGIN CERTIFICATE-----
MIIBMjCB2aADAgECAgIQRDAKBggqhkjOPQQDAjAWMRQwEgYDVQQDDAtzcm9zMnRl
c3RDQTAeFw0xOTExMjUwNDE0MDJaFw0yOTExMjIwNDE0MDJaMCAxHjAcBgNVBAMM
FS9zdGRfbXNnc19zdHJpbmdfdG1wMDBZMBMGByqGSM49AgEGCCqGSM49AwEHA0IA
BGflTmX7chW8GWF5RJvqJE1KXHudpFq/O5TGy4NJ6EVx6wGGRWNhX8nLqb2fMKf3
80x+xdWGe5h/TMfTD6Ehq72jDTALMAkGA1UdEwQCMAAwCgYIKoZIzj0EAwIDSAAw
RQIgGrbxKaZnLZxjLMBxz40RZosgEmJU/+OzRWgHU7JuF8cCIQDvuMfKepM50pSM
mVhxm9WJpCshwE4p7mfeNsT/2VnrKg==
-----END CERTIFICATE-----
