Certificate:
    Data:
        Version: 3 (0x2)
        Serial Number: 4165 (0x1045)
        Signature Algorithm: ecdsa-with-SHA256
        Issuer: CN=sros2testCA
        Validity
            Not Before: Nov 25 04:14:05 2019 GMT
            Not After : Nov 22 04:14:05 2029 GMT
        Subject: CN=/std_msgs_int32_tmp0
        Subject Public Key Info:
            Public Key Algorithm: id-ecPublicKey
                Public-Key: (256 bit)
                pub:
                    04:8a:ac:62:c3:76:e0:ee:ce:1c:2b:e9:62:84:13:
                    c0:c4:1b:24:d3:a8:8d:d3:19:9a:6f:33:64:ec:24:
                    bc:17:cc:f4:5c:94:87:d5:a3:c2:38:27:b1:9b:84:
                    00:c7:c5:bb:e9:1e:da:be:1e:a5:f4:8e:85:a3:e3:
                    ae:ec:6a:19:92
                ASN1 OID: prime256v1
                NIST CURVE: P-256
        X509v3 extensions:
            X509v3 Basic Constraints: 
                CA:FALSE
    Signature Algorithm: ecdsa-with-SHA256
         30:45:02:20:5e:3b:ef:da:c8:7d:54:f8:8b:17:99:3a:9d:27:
         24:54:1a:59:91:2f:22:5e:0f:cc:e7:b5:9c:a8:1d:8a:a2:ef:
         02:21:00:af:6a:41:ba:b5:53:ff:b1:94:e4:ad:9c:3b:f4:85:
         d9:cf:a3:11:ec:c6:fe:fb:57:d7:31:6e:72:2c:14:8c:19
-----BEGIN CERTIFICATE-----
MIIBMTCB2KADAgECAgIQRTAKBggqhkjOPQQDAjAWMRQwEgYDVQQDDAtzcm9zMnRl
c3RDQTAeFw0xOTExMjUwNDE0MDVaFw0yOTExMjIwNDE0MDVaMB8xHTAbBgNVBAMM
FC9zdGRfbXNnc19pbnQzMl90bXAwMFkwEwYHKoZIzj0CAQYIKoZIzj0DAQcDQgAE
iqxiw3bg7s4cK+lihBPAxBsk06iN0xmabzNk7CS8F8z0XJSH1aPCOCexm4QAx8W7
6R7avh6l9I6Fo+Ou7GoZkqMNMAswCQYDVR0TBAIwADAKBggqhkjOPQQDAgNIADBF
AiBeO+/ayH1U+IsXmTqdJyRUGlmRLyJeD8zntZyoHYqi7wIhAK9qQbq1U/+xlOSt
nDv0hdnPoxHsxv77V9cxbnIsFIwZ
-----END CERTIFICATE-----
