Certificate:
    Data:
        Version: 3 (0x2)
        Serial Number: 4166 (0x1046)
        Signature Algorithm: ecdsa-with-SHA256
        Issuer: CN=sros2testCA
        Validity
            Not Before: Nov 25 04:14:09 2019 GMT
            Not After : Nov 22 04:14:09 2029 GMT
        Subject: CN=/std_msgs_string_tmp1
        Subject Public Key Info:
            Public Key Algorithm: id-ecPublicKey
                Public-Key: (256 bit)
                pub:
                    04:fc:87:cf:6f:5e:85:fd:82:fc:78:a0:00:7e:f2:
                    c7:18:b8:37:76:f5:d7:91:fe:af:c3:ab:aa:45:d7:
                    91:dd:aa:d0:4c:0d:41:5c:76:65:89:74:20:5b:de:
                    be:38:08:2f:b7:11:43:81:ca:f1:d0:cf:a7:2d:8d:
                    28:fb:f7:cd:f3
                ASN1 OID: prime256v1
                NIST CURVE: P-256
        X509v3 extensions:
            X509v3 Basic Constraints: 
                CA:FALSE
    Signature Algorithm: ecdsa-with-SHA256
         30:46:02:21:00:f3:26:3b:f0:24:86:d7:61:7f:a8:87:46:c5:
         f6:65:a8:6c:cc:9e:41:33:47:d7:a0:b3:2f:7b:f1:7d:45:9d:
         b8:02:21:00:ac:d1:b9:27:48:8b:5e:7f:c7:4f:a7:4f:26:eb:
         5b:f4:4b:0c:c4:2b:82:2e:4a:90:03:fe:80:4e:3f:80:97:83
-----BEGIN CERTIFICATE-----
MIIBMzCB2aADAgECAgIQRjAKBggqhkjOPQQDAjAWMRQwEgYDVQQDDAtzcm9zMnRl
c3RDQTAeFw0xOTExMjUwNDE0MDlaFw0yOTExMjIwNDE0MDlaMCAxHjAcBgNVBAMM
FS9zdGRfbXNnc19zdHJpbmdfdG1wMTBZMBMGByqGSM49AgEGCCqGSM49AwEHA0IA
BPyHz29ehf2C/HigAH7yxxi4N3b115H+r8OrqkXXkd2q0EwNQVx2ZYl0IFvevjgI
L7cRQ4HK8dDPpy2NKPv3zfOjDTALMAkGA1UdEwQCMAAwCgYIKoZIzj0EAwIDSQAw
RgIhAPMmO/Akhtdhf6iHRsX2ZahszJ5BM0fXoLMve/F9RZ24AiEArNG5J0iLXn/H
T6dPJutb9EsMxCuCLkqQA/6ATj+Al4M=
-----END CERTIFICATE-----
