Certificate:
    Data:
        Version: 3 (0x2)
        Serial Number: 4167 (0x1047)
        Signature Algorithm: ecdsa-with-SHA256
        Issuer: CN=sros2testCA
        Validity
            Not Before: Nov 25 04:40:36 2019 GMT
            Not After : Nov 22 04:40:36 2029 GMT
        Subject: CN=/std_msgs_string_tmp0
        Subject Public Key Info:
            Public Key Algorithm: id-ecPublicKey
                Public-Key: (256 bit)
                pub:
                    04:e7:e3:d5:84:05:81:07:5a:b7:eb:8d:db:5c:e1:
                    a6:d2:9c:10:d6:11:d1:ca:de:6f:7f:64:25:21:56:
                    cf:04:70:5c:b3:f0:d5:c0:64:55:92:2d:18:f8:76:
                    39:78:52:b3:50:50:ab:aa:2c:63:20:4e:e6:cf:8a:
                    49:68:47:2c:aa
                ASN1 OID: prime256v1
                NIST CURVE: P-256
        X509v3 extensions:
            X509v3 Basic Constraints: 
                CA:FALSE
    Signature Algorithm: ecdsa-with-SHA256
         30:45:02:20:66:a5:03:13:5b:b8:82:d3:ba:c2:fa:65:19:1e:
         f5:fb:4f:6e:7a:3b:23:89:8e:f4:7f:ab:71:28:32:81:84:d0:
         02:21:00:aa:fe:18:1b:37:32:c9:0b:b0:93:22:59:59:63:61:
         34:8a:ff:f9:86:25:7d:67:b1:d0:e7:60:c7:b3:ce:5a:45
-----BEGIN CERTIFICATE-----
MIIBMjCB2aADAgECAgIQRzAKBggqhkjOPQQDAjAWMRQwEgYDVQQDDAtzcm9zMnRl
c3RDQTAeFw0xOTExMjUwNDQwMzZaFw0yOTExMjIwNDQwMzZaMCAxHjAcBgNVBAMM
FS9zdGRfbXNnc19zdHJpbmdfdG1wMDBZMBMGByqGSM49AgEGCCqGSM49AwEHA0IA
BOfj1YQFgQdat+uN21zhptKcENYR0creb39kJSFWzwRwXLPw1cBkVZItGPh2OXhS
s1BQq6osYyBO5s+KSWhHLKqjDTALMAkGA1UdEwQCMAAwCgYIKoZIzj0EAwIDSAAw
RQIgZqUDE1u4gtO6wvplGR71+09uejsjiY70f6txKDKBhNACIQCq/hgbNzLJC7CT
IllZY2E0iv/5hiV9Z7HQ52DHs85aRQ==
-----END CERTIFICATE-----
