Certificate:
    Data:
        Version: 3 (0x2)
        Serial Number: 4168 (0x1048)
        Signature Algorithm: ecdsa-with-SHA256
        Issuer: CN=sros2testCA
        Validity
            Not Before: Nov 25 04:40:39 2019 GMT
            Not After : Nov 22 04:40:39 2029 GMT
        Subject: CN=/std_msgs_int32_tmp0
        Subject Public Key Info:
            Public Key Algorithm: id-ecPublicKey
                Public-Key: (256 bit)
                pub:
                    04:06:32:b2:38:15:6a:2f:33:25:48:43:0a:14:4f:
                    cc:80:5f:98:25:dd:03:fb:d4:54:e5:c5:f8:40:70:
                    f5:42:60:20:7b:d8:71:0b:97:56:72:e1:d2:6c:fb:
                    54:86:b4:b5:21:8a:b6:32:bc:6d:f1:da:9b:5b:97:
                    5f:36:e5:f8:62
                ASN1 OID: prime256v1
                NIST CURVE: P-256
        X509v3 extensions:
            X509v3 Basic Constraints: 
                CA:FALSE
    Signature Algorithm: ecdsa-with-SHA256
         30:45:02:21:00:ed:79:6d:e1:d0:5b:e6:69:5d:a0:5e:1b:e3:
         01:48:d2:87:7c:10:61:97:4c:bd:71:f7:77:53:96:34:ce:21:
         c3:02:20:2b:02:d8:36:76:fb:83:4a:79:e8:e4:2c:9d:70:86:
         d1:0c:97:da:3a:f0:67:f2:21:e1:61:ea:66:6e:e7:2f:93
-----BEGIN CERTIFICATE-----
MIIBMTCB2KADAgECAgIQSDAKBggqhkjOPQQDAjAWMRQwEgYDVQQDDAtzcm9zMnRl
c3RDQTAeFw0xOTExMjUwNDQwMzlaFw0yOTExMjIwNDQwMzlaMB8xHTAbBgNVBAMM
FC9zdGRfbXNnc19pbnQzMl90bXAwMFkwEwYHKoZIzj0CAQYIKoZIzj0DAQcDQgAE
BjKyOBVqLzMlSEMKFE/MgF+YJd0D+9RU5cX4QHD1QmAge9hxC5dWcuHSbPtUhrS1
IYq2Mrxt8dqbW5dfNuX4YqMNMAswCQYDVR0TBAIwADAKBggqhkjOPQQDAgNIADBF
AiEA7Xlt4dBb5mldoF4b4wFI0od8EGGXTL1x93dTljTOIcMCICsC2DZ2+4NKeejk
LJ1whtEMl9o68GfyIeFh6mZu5y+T
-----END CERTIFICATE-----
