Certificate:
    Data:
        Version: 3 (0x2)
        Serial Number: 4169 (0x1049)
        Signature Algorithm: ecdsa-with-SHA256
        Issuer: CN=sros2testCA
        Validity
            Not Before: Nov 25 04:40:43 2019 GMT
            Not After : Nov 22 04:40:43 2029 GMT
        Subject: CN=/std_msgs_string_tmp1
        Subject Public Key Info:
            Public Key Algorithm: id-ecPublicKey
                Public-Key: (256 bit)
                pub:
                    04:3d:90:75:6c:72:81:7f:6f:f2:f8:30:b0:69:57:
                    9c:f4:17:b5:bc:2f:af:73:ad:d1:a0:94:d3:07:6d:
                    32:3a:2b:5f:a5:18:f3:e6:e2:ef:d6:fb:64:32:92:
                    28:74:11:7a:70:1c:06:07:9b:4c:17:d4:94:6e:98:
                    c2:97:3a:5b:6f
                ASN1 OID: prime256v1
                NIST CURVE: P-256
        X509v3 extensions:
            X509v3 Basic Constraints: 
                CA:FALSE
    Signature Algorithm: ecdsa-with-SHA256
         30:45:02:20:79:7e:ad:4f:bd:07:39:08:cb:f3:f8:fe:b8:10:
         ff:38:6e:2e:09:fa:61:b4:4f:2a:37:d9:a4:b0:84:a1:57:57:
         02:21:00:c8:59:1f:0b:c0:0e:21:88:d4:95:24:f3:db:a3:28:
         45:5c:0b:96:93:b2:70:7a:24:7b:13:5a:4d:67:4c:32:54
-----BEGIN CERTIFICATE-----
MIIBMjCB2aADAgECAgIQSTAKBggqhkjOPQQDAjAWMRQwEgYDVQQDDAtzcm9zMnRl
c3RDQTAeFw0xOTExMjUwNDQwNDNaFw0yOTExMjIwNDQwNDNaMCAxHjAcBgNVBAMM
FS9zdGRfbXNnc19zdHJpbmdfdG1wMTBZMBMGByqGSM49AgEGCCqGSM49AwEHA0IA
BD2QdWxygX9v8vgwsGlXnPQXtbwvr3Ot0aCU0wdtMjorX6UY8+bi79b7ZDKSKHQR
enAcBgebTBfUlG6Ywpc6W2+jDTALMAkGA1UdEwQCMAAwCgYIKoZIzj0EAwIDSAAw
RQIgeX6tT70HOQjL8/j+uBD/OG4uCfphtE8qN9mksIShV1cCIQDIWR8LwA4hiNSV
JPPboyhFXAuWk7JweiR7E1pNZ0wyVA==
-----END CERTIFICATE-----
