Certificate:
    Data:
        Version: 3 (0x2)
        Serial Number: 4170 (0x104a)
        Signature Algorithm: ecdsa-with-SHA256
        Issuer: CN=sros2testCA
        Validity
            Not Before: Nov 25 04:54:38 2019 GMT
            Not After : Nov 22 04:54:38 2029 GMT
        Subject: CN=/std_msgs_int32_tmp0
        Subject Public Key Info:
            Public Key Algorithm: id-ecPublicKey
                Public-Key: (256 bit)
                pub:
                    04:88:6d:83:c6:49:42:c9:52:41:2c:94:99:c4:f0:
                    a7:f6:71:6e:91:70:b4:27:29:1b:12:75:97:3d:00:
                    1d:17:6d:b0:f8:12:34:42:cb:37:03:f5:63:5d:46:
                    a4:d5:81:77:fd:0e:13:ec:cf:03:f4:9d:de:31:a7:
                    fb:f8:fe:ff:c8
                ASN1 OID: prime256v1
                NIST CURVE: P-256
        X509v3 extensions:
            X509v3 Basic Constraints: 
                CA:FALSE
    Signature Algorithm: ecdsa-with-SHA256
         30:44:02:20:73:89:22:d7:b7:a0:7a:c4:0e:72:8f:70:9c:78:
         fd:00:9d:04:fb:9a:c9:7e:c5:47:f0:28:2c:29:14:07:76:c5:
         02:20:23:e3:fd:7f:01:84:f6:a2:01:e3:27:f7:cc:87:33:cd:
         01:82:25:17:1c:ce:38:47:26:73:de:36:4f:23:83:94
-----BEGIN CERTIFICATE-----
MIIBMDCB2KADAgECAgIQSjAKBggqhkjOPQQDAjAWMRQwEgYDVQQDDAtzcm9zMnRl
c3RDQTAeFw0xOTExMjUwNDU0MzhaFw0yOTExMjIwNDU0MzhaMB8xHTAbBgNVBAMM
FC9zdGRfbXNnc19pbnQzMl90bXAwMFkwEwYHKoZIzj0CAQYIKoZIzj0DAQcDQgAE
iG2DxklCyVJBLJSZxPCn9nFukXC0JykbEnWXPQAdF22w+BI0Qss3A/VjXUak1YF3
/Q4T7M8D9J3eMaf7+P7/yKMNMAswCQYDVR0TBAIwADAKBggqhkjOPQQDAgNHADBE
AiBziSLXt6B6xA5yj3CceP0AnQT7msl+xUfwKCwpFAd2xQIgI+P9fwGE9qIB4yf3
zIczzQGCJRcczjhHJnPeNk8jg5Q=
-----END CERTIFICATE-----
