Certificate:
    Data:
        Version: 3 (0x2)
        Serial Number: 4171 (0x104b)
        Signature Algorithm: ecdsa-with-SHA256
        Issuer: CN=sros2testCA
        Validity
            Not Before: Nov 25 04:54:41 2019 GMT
            Not After : Nov 22 04:54:41 2029 GMT
        Subject: CN=/std_msgs_string_tmp0
        Subject Public Key Info:
            Public Key Algorithm: id-ecPublicKey
                Public-Key: (256 bit)
                pub:
                    04:6f:43:0a:3f:ae:85:ac:eb:90:a3:bc:44:79:27:
                    77:c0:b1:3e:e6:c8:95:2b:e7:4c:2e:bd:9b:51:0d:
                    75:45:a9:f5:16:dc:5f:9b:da:9a:bc:85:b7:db:8b:
                    af:7e:4b:ce:22:51:57:d1:ca:88:f9:bd:c2:7a:52:
                    10:e7:61:dd:97
                ASN1 OID: prime256v1
                NIST CURVE: P-256
        X509v3 extensions:
            X509v3 Basic Constraints: 
                CA:FALSE
    Signature Algorithm: ecdsa-with-SHA256
         30:45:02:20:57:fe:57:02:67:3a:f6:b0:e6:9b:b9:59:7b:76:
         7b:e4:68:19:06:63:87:a4:46:ab:cc:6c:cb:65:00:bd:7c:aa:
         02:21:00:86:bd:ec:00:21:d2:a4:29:c1:73:12:5c:7e:5e:c3:
         70:56:34:99:29:d6:f3:72:12:fc:d4:0f:6e:3a:21:85:d6
-----BEGIN CERTIFICATE-----
MIIBMjCB2aADAgECAgIQSzAKBggqhkjOPQQDAjAWMRQwEgYDVQQDDAtzcm9zMnRl
c3RDQTAeFw0xOTExMjUwNDU0NDFaFw0yOTExMjIwNDU0NDFaMCAxHjAcBgNVBAMM
FS9zdGRfbXNnc19zdHJpbmdfdG1wMDBZMBMGByqGSM49AgEGCCqGSM49AwEHA0IA
BG9DCj+uhazrkKO8RHknd8CxPubIlSvnTC69m1ENdUWp9RbcX5vamryFt9uLr35L
ziJRV9HKiPm9wnpSEOdh3ZejDTALMAkGA1UdEwQCMAAwCgYIKoZIzj0EAwIDSAAw
RQIgV/5XAmc69rDmm7lZe3Z75GgZBmOHpEarzGzLZQC9fKoCIQCGvewAIdKkKcFz
Elx+XsNwVjSZKdbzchL81A9uOiGF1g==
-----END CERTIFICATE-----
