Certificate:
    Data:
        Version: 3 (0x2)
        Serial Number: 4172 (0x104c)
        Signature Algorithm: ecdsa-with-SHA256
        Issuer: CN=sros2testCA
        Validity
            Not Before: Nov 25 04:54:45 2019 GMT
            Not After : Nov 22 04:54:45 2029 GMT
        Subject: CN=/std_msgs_int32_tmp1
        Subject Public Key Info:
            Public Key Algorithm: id-ecPublicKey
                Public-Key: (256 bit)
                pub:
                    04:88:e9:48:3f:c9:d3:ff:96:d8:cb:06:7a:0d:ee:
                    94:91:5c:6c:d1:40:61:e0:a8:12:88:dc:8d:84:35:
                    f5:18:7c:77:f5:ba:56:1e:f1:e9:dc:9f:53:7f:b0:
                    ba:9c:be:9b:6c:6f:d6:9d:01:79:67:aa:06:b7:5c:
                    c7:d0:36:04:a0
                ASN1 OID: prime256v1
                NIST CURVE: P-256
        X509v3 extensions:
            X509v3 Basic Constraints: 
                CA:FALSE
    Signature Algorithm: ecdsa-with-SHA256
         30:46:02:21:00:83:20:b8:ac:99:24:09:5c:f0:c2:c9:81:81:
         7b:16:cd:ff:e4:50:d0:ff:16:b1:86:52:69:fc:15:f9:79:6a:
         5d:02:21:00:9d:11:b7:5e:28:ac:92:e0:00:80:64:bd:8a:3f:
         fc:08:7e:6f:f5:f1:25:f6:26:51:56:20:0c:d2:41:bd:ff:5a
-----BEGIN CERTIFICATE-----
MIIBMjCB2KADAgECAgIQTDAKBggqhkjOPQQDAjAWMRQwEgYDVQQDDAtzcm9zMnRl
c3RDQTAeFw0xOTExMjUwNDU0NDVaFw0yOTExMjIwNDU0NDVaMB8xHTAbBgNVBAMM
FC9zdGRfbXNnc19pbnQzMl90bXAxMFkwEwYHKoZIzj0CAQYIKoZIzj0DAQcDQgAE
iOlIP8nT/5bYywZ6De6UkVxs0UBh4KgSiNyNhDX1GHx39bpWHvHp3J9Tf7C6nL6b
bG/WnQF5Z6oGt1zH0DYEoKMNMAswCQYDVR0TBAIwADAKBggqhkjOPQQDAgNJADBG
AiEAgyC4rJkkCVzwwsmBgXsWzf/kUND/FrGGUmn8Ffl5al0CIQCdEbdeKKyS4ACA
ZL2KP/wIfm/18SX2JlFWIAzSQb3/Wg==
-----END CERTIFICATE-----
