Certificate:
    Data:
        Version: 3 (0x2)
        Serial Number: 4173 (0x104d)
        Signature Algorithm: ecdsa-with-SHA256
        Issuer: CN=sros2testCA
        Validity
            Not Before: Nov 25 05:07:16 2019 GMT
            Not After : Nov 22 05:07:16 2029 GMT
        Subject: CN=/subscriber_int32
        Subject Public Key Info:
            Public Key Algorithm: id-ecPublicKey
                Public-Key: (256 bit)
                pub:
                    04:b9:61:68:3c:49:72:c7:39:88:5f:60:8e:ca:0a:
                    b6:81:50:0f:d2:61:b5:77:43:3a:f3:12:5e:a5:17:
                    74:eb:d3:01:fa:ab:7c:e0:d3:be:fe:ae:88:7e:2b:
                    f2:46:43:fd:c1:55:09:36:de:ac:76:9b:6c:1f:86:
                    78:56:56:d3:e2
                ASN1 OID: prime256v1
                NIST CURVE: P-256
        X509v3 extensions:
            X509v3 Basic Constraints: 
                CA:FALSE
    Signature Algorithm: ecdsa-with-SHA256
         30:45:02:21:00:9c:95:18:85:60:d4:fc:3c:9e:5c:c6:a9:c8:
         0b:ce:77:b4:3d:c4:a7:2f:71:ce:92:af:19:24:74:61:71:ee:
         2f:02:20:4a:ad:54:fe:00:54:75:de:e8:b7:2b:bd:33:cd:c4:
         ac:30:a7:1a:03:5c:09:ad:87:2d:65:10:a6:5b:32:95:9a
-----BEGIN CERTIFICATE-----
MIIBLjCB1aADAgECAgIQTTAKBggqhkjOPQQDAjAWMRQwEgYDVQQDDAtzcm9zMnRl
c3RDQTAeFw0xOTExMjUwNTA3MTZaFw0yOTExMjIwNTA3MTZaMBwxGjAYBgNVBAMM
ES9zdWJzY3JpYmVyX2ludDMyMFkwEwYHKoZIzj0CAQYIKoZIzj0DAQcDQgAEuWFo
PElyxzmIX2COygq2gVAP0mG1d0M68xJepRd069MB+qt84NO+/q6IfivyRkP9wVUJ
Nt6sdptsH4Z4VlbT4qMNMAswCQYDVR0TBAIwADAKBggqhkjOPQQDAgNIADBFAiEA
nJUYhWDU/DyeXMapyAvOd7Q9xKcvcc6SrxkkdGFx7i8CIEqtVP4AVHXe6LcrvTPN
xKwwpxoDXAmthy1lEKZbMpWa
-----END CERTIFICATE-----
