Certificate:
    Data:
        Version: 3 (0x2)
        Serial Number: 4174 (0x104e)
        Signature Algorithm: ecdsa-with-SHA256
        Issuer: CN=sros2testCA
        Validity
            Not Before: Nov 25 05:09:47 2019 GMT
            Not After : Nov 22 05:09:47 2029 GMT
        Subject: CN=/std_msgs_string_tmp0
        Subject Public Key Info:
            Public Key Algorithm: id-ecPublicKey
                Public-Key: (256 bit)
                pub:
                    04:e5:26:c3:3c:82:d6:44:01:58:88:83:2d:8d:fb:
                    d4:69:4c:bc:71:a7:b7:e0:1f:27:01:cf:00:ec:3a:
                    5e:bc:b0:5e:5f:36:44:10:d2:de:fc:cb:aa:93:7a:
                    71:c4:bd:b0:4a:3b:61:75:46:e7:d6:11:5d:2b:cb:
                    6b:2d:bd:28:c8
                ASN1 OID: prime256v1
                NIST CURVE: P-256
        X509v3 extensions:
            X509v3 Basic Constraints: 
                CA:FALSE
    Signature Algorithm: ecdsa-with-SHA256
         30:46:02:21:00:bc:4e:d8:71:ef:c2:1d:e1:76:60:82:d0:6c:
         bd:9a:63:03:27:15:59:44:65:e3:d2:f1:66:3c:f6:d9:ac:99:
         3c:02:21:00:8f:02:ed:39:b4:e8:f6:b1:17:d5:f7:f9:7a:9a:
         da:06:66:79:6f:ec:ac:7e:e9:65:57:b8:28:c8:d6:de:f9:12
-----BEGIN CERTIFICATE-----
MIIBMzCB2aADAgECAgIQTjAKBggqhkjOPQQDAjAWMRQwEgYDVQQDDAtzcm9zMnRl
c3RDQTAeFw0xOTExMjUwNTA5NDdaFw0yOTExMjIwNTA5NDdaMCAxHjAcBgNVBAMM
FS9zdGRfbXNnc19zdHJpbmdfdG1wMDBZMBMGByqGSM49AgEGCCqGSM49AwEHA0IA
BOUmwzyC1kQBWIiDLY371GlMvHGnt+AfJwHPAOw6XrywXl82RBDS3vzLqpN6ccS9
sEo7YXVG59YRXSvLay29KMijDTALMAkGA1UdEwQCMAAwCgYIKoZIzj0EAwIDSQAw
RgIhALxO2HHvwh3hdmCC0Gy9mmMDJxVZRGXj0vFmPPbZrJk8AiEAjwLtObTo9rEX
1ff5epraBmZ5b+ysfullV7goyNbe+RI=
-----END CERTIFICATE-----
