Certificate:
    Data:
        Version: 3 (0x2)
        Serial Number: 4175 (0x104f)
        Signature Algorithm: ecdsa-with-SHA256
        Issuer: CN=sros2testCA
        Validity
            Not Before: Nov 25 05:09:51 2019 GMT
            Not After : Nov 22 05:09:51 2029 GMT
        Subject: CN=/std_msgs_int32_tmp0
        Subject Public Key Info:
            Public Key Algorithm: id-ecPublicKey
                Public-Key: (256 bit)
                pub:
                    04:41:2c:8f:6d:46:1a:de:cc:c3:2a:4e:ce:23:76:
                    08:ef:93:5e:18:27:ef:ea:89:37:7b:c6:be:b2:b3:
                    5c:eb:15:1b:5a:ec:7a:2a:ee:51:95:e1:20:38:20:
                    02:57:a5:d5:51:ae:de:45:78:c9:ec:46:df:1a:05:
                    21:a8:11:93:87
                ASN1 OID: prime256v1
                NIST CURVE: P-256
        X509v3 extensions:
            X509v3 Basic Constraints: 
                CA:FALSE
    Signature Algorithm: ecdsa-with-SHA256
         30:46:02:21:00:9f:21:9e:d8:ad:f2:dd:e1:8d:ed:18:60:f7:
         79:08:fd:7d:b7:0c:2f:39:47:d2:c4:b5:0e:06:b0:c1:a2:74:
         36:02:21:00:9a:a8:bc:f0:23:27:e7:18:0c:f5:cc:52:b7:3c:
         08:e0:eb:99:02:fa:0f:77:01:88:62:5d:aa:16:5a:10:ec:8b
-----BEGIN CERTIFICATE-----
MIIBMjCB2KADAgECAgIQTzAKBggqhkjOPQQDAjAWMRQwEgYDVQQDDAtzcm9zMnRl
c3RDQTAeFw0xOTExMjUwNTA5NTFaFw0yOTExMjIwNTA5NTFaMB8xHTAbBgNVBAMM
FC9zdGRfbXNnc19pbnQzMl90bXAwMFkwEwYHKoZIzj0CAQYIKoZIzj0DAQcDQgAE
QSyPbUYa3szDKk7OI3YI75NeGCfv6ok3e8a+srNc6xUbWux6Ku5RleEgOCACV6XV
Ua7eRXjJ7EbfGgUhqBGTh6MNMAswCQYDVR0TBAIwADAKBggqhkjOPQQDAgNJADBG
AiEAnyGe2K3y3eGN7Rhg93kI/X23DC85R9LEtQ4GsMGidDYCIQCaqLzwIyfnGAz1
zFK3PAjg65kC+g93AYhiXaoWWhDsiw==
-----END CERTIFICATE-----
