Certificate:
    Data:
        Version: 3 (0x2)
        Serial Number: 4176 (0x1050)
        Signature Algorithm: ecdsa-with-SHA256
        Issuer: CN=sros2testCA
        Validity
            Not Before: Nov 25 05:11:49 2019 GMT
            Not After : Nov 22 05:11:49 2029 GMT
        Subject: CN=/std_msgs_string_tmp0
        Subject Public Key Info:
            Public Key Algorithm: id-ecPublicKey
                Public-Key: (256 bit)
                pub:
                    04:8b:e4:0a:fd:d4:5a:2d:81:1a:a5:4d:1a:5e:c5:
                    03:2a:f8:ea:71:b7:a8:ca:03:a4:6d:2a:9a:6f:5c:
                    1c:3a:46:a3:71:b6:2c:b3:16:4c:c1:4a:0c:4a:26:
                    ce:b4:da:6e:be:7f:f2:33:00:17:a2:21:15:73:ae:
                    a7:ca:5a:19:e1
                ASN1 OID: prime256v1
                NIST CURVE: P-256
        X509v3 extensions:
            X509v3 Basic Constraints: 
                CA:FALSE
    Signature Algorithm: ecdsa-with-SHA256
         30:45:02:20:7e:c7:da:a1:8e:80:92:64:fb:4c:99:da:f2:b9:
         3a:ee:a7:2a:0a:44:6d:6e:5c:23:8a:36:8f:58:df:fb:25:04:
         02:21:00:e1:97:e9:a0:e8:87:26:05:d5:82:ab:80:c1:11:9a:
         c6:7c:7a:78:9c:52:bc:01:c4:3d:75:33:5b:5f:66:4d:0e
-----BEGIN CERTIFICATE-----
MIIBMjCB2aADAgECAgIQUDAKBggqhkjOPQQDAjAWMRQwEgYDVQQDDAtzcm9zMnRl
c3RDQTAeFw0xOTExMjUwNTExNDlaFw0yOTExMjIwNTExNDlaMCAxHjAcBgNVBAMM
FS9zdGRfbXNnc19zdHJpbmdfdG1wMDBZMBMGByqGSM49AgEGCCqGSM49AwEHA0IA
BIvkCv3UWi2BGqVNGl7FAyr46nG3qMoDpG0qmm9cHDpGo3G2LLMWTMFKDEomzrTa
br5/8jMAF6IhFXOup8paGeGjDTALMAkGA1UdEwQCMAAwCgYIKoZIzj0EAwIDSAAw
RQIgfsfaoY6AkmT7TJna8rk67qcqCkRtblwjijaPWN/7JQQCIQDhl+mg6IcmBdWC
q4DBEZrGfHp4nFK8AcQ9dTNbX2ZNDg==
-----END CERTIFICATE-----
