Certificate:
    Data:
        Version: 3 (0x2)
        Serial Number: 4177 (0x1051)
        Signature Algorithm: ecdsa-with-SHA256
        Issuer: CN=sros2testCA
        Validity
            Not Before: Nov 25 05:11:52 2019 GMT
            Not After : Nov 22 05:11:52 2029 GMT
        Subject: CN=/std_msgs_int32_tmp0
        Subject Public Key Info:
            Public Key Algorithm: id-ecPublicKey
                Public-Key: (256 bit)
                pub:
                    04:f2:69:af:c6:08:7f:4a:49:6a:d2:8b:b9:6a:0c:
                    b4:3a:ac:70:99:1f:7e:e2:01:bc:71:27:7e:d0:12:
                    7a:36:fd:31:41:a0:f3:f5:aa:84:ae:c4:4b:82:3b:
                    a6:c7:c5:e4:c3:d7:76:65:e4:0c:27:86:a8:18:5b:
                    e8:b9:ff:33:8a
                ASN1 OID: prime256v1
                NIST CURVE: P-256
        X509v3 extensions:
            X509v3 Basic Constraints: 
                CA:FALSE
    Signature Algorithm: ecdsa-with-SHA256
         30:45:02:20:34:56:33:f1:4f:87:e4:75:2a:78:73:20:63:34:
         f8:4a:7b:94:44:03:7f:33:ba:de:7f:e4:a2:ff:dc:a5:36:d1:
         02:21:00:f3:37:8b:64:67:37:72:f0:af:63:07:e6:53:95:c2:
         9d:c0:be:e0:0a:25:73:a6:43:c5:8c:ef:f7:94:3b:a1:1a
-----BEGIN CERTIFICATE-----
MIIBMTCB2KADAgECAgIQUTAKBggqhkjOPQQDAjAWMRQwEgYDVQQDDAtzcm9zMnRl
c3RDQTAeFw0xOTExMjUwNTExNTJaFw0yOTExMjIwNTExNTJaMB8xHTAbBgNVBAMM
FC9zdGRfbXNnc19pbnQzMl90bXAwMFkwEwYHKoZIzj0CAQYIKoZIzj0DAQcDQgAE
8mmvxgh/Sklq0ou5agy0OqxwmR9+4gG8cSd+0BJ6Nv0xQaDz9aqErsRLgjumx8Xk
w9d2ZeQMJ4aoGFvouf8ziqMNMAswCQYDVR0TBAIwADAKBggqhkjOPQQDAgNIADBF
AiA0VjPxT4fkdSp4cyBjNPhKe5REA38zut5/5KL/3KU20QIhAPM3i2RnN3Lwr2MH
5lOVwp3AvuAKJXOmQ8WM7/eUO6Ea
-----END CERTIFICATE-----
