Certificate:
    Data:
        Version: 3 (0x2)
        Serial Number: 4178 (0x1052)
        Signature Algorithm: ecdsa-with-SHA256
        Issuer: CN=sros2testCA
        Validity
            Not Before: Nov 25 05:14:28 2019 GMT
            Not After : Nov 22 05:14:28 2029 GMT
        Subject: CN=/std_msgs_string_tmp0
        Subject Public Key Info:
            Public Key Algorithm: id-ecPublicKey
                Public-Key: (256 bit)
                pub:
                    04:78:b7:12:6b:f9:cb:be:a0:c7:bd:c9:f2:5c:96:
                    f7:a3:e6:98:60:31:f6:1a:7c:52:cd:0a:73:18:da:
                    e2:cf:32:42:19:44:58:38:d5:c3:5f:a5:c9:e9:bb:
                    c5:53:71:c0:3f:33:6a:4e:8a:1f:96:de:3b:8c:84:
                    3f:13:09:c6:02
                ASN1 OID: prime256v1
                NIST CURVE: P-256
        X509v3 extensions:
            X509v3 Basic Constraints: 
                CA:FALSE
    Signature Algorithm: ecdsa-with-SHA256
         30:44:02:20:39:6c:b4:16:74:12:41:96:8e:d5:f7:49:c8:47:
         76:f0:45:07:31:f8:10:e7:88:df:54:6c:3a:6e:86:1c:eb:d2:
         02:20:7e:3a:29:45:c5:e6:e2:da:ad:44:21:6c:a5:82:6f:1c:
         8a:dc:57:85:9d:2c:d1:0c:97:6b:44:f3:42:00:29:28
-----BEGIN CERTIFICATE-----
MIIBMTCB2aADAgECAgIQUjAKBggqhkjOPQQDAjAWMRQwEgYDVQQDDAtzcm9zMnRl
c3RDQTAeFw0xOTExMjUwNTE0MjhaFw0yOTExMjIwNTE0MjhaMCAxHjAcBgNVBAMM
FS9zdGRfbXNnc19zdHJpbmdfdG1wMDBZMBMGByqGSM49AgEGCCqGSM49AwEHA0IA
BHi3Emv5y76gx73J8lyW96PmmGAx9hp8Us0Kcxja4s8yQhlEWDjVw1+lyem7xVNx
wD8zak6KH5beO4yEPxMJxgKjDTALMAkGA1UdEwQCMAAwCgYIKoZIzj0EAwIDRwAw
RAIgOWy0FnQSQZaO1fdJyEd28EUHMfgQ54jfVGw6boYc69ICIH46KUXF5uLarUQh
bKWCbxyK3FeFnSzRDJdrRPNCACko
-----END CERTIFICATE-----
