Certificate:
    Data:
        Version: 3 (0x2)
        Serial Number: 4179 (0x1053)
        Signature Algorithm: ecdsa-with-SHA256
        Issuer: CN=sros2testCA
        Validity
            Not Before: Nov 25 05:14:32 2019 GMT
            Not After : Nov 22 05:14:32 2029 GMT
        Subject: CN=/std_msgs_int32_tmp0
        Subject Public Key Info:
            Public Key Algorithm: id-ecPublicKey
                Public-Key: (256 bit)
                pub:
                    04:7d:da:f8:17:9b:5e:dc:24:04:45:7e:bf:91:77:
                    16:27:06:c7:1d:b1:0b:11:95:21:ec:dd:99:10:c0:
                    f5:6d:cb:de:bb:08:35:ee:73:f0:9e:3e:22:a4:bd:
                    f7:c1:82:95:84:04:05:34:8f:75:44:1c:46:aa:0a:
                    17:4d:89:fe:b8
                ASN1 OID: prime256v1
                NIST CURVE: P-256
        X509v3 extensions:
            X509v3 Basic Constraints: 
                CA:FALSE
    Signature Algorithm: ecdsa-with-SHA256
         30:45:02:21:00:b9:dc:64:89:9c:6e:47:a8:5f:f9:53:d9:60:
         91:78:51:c4:82:4d:d9:b3:40:0b:48:7a:a6:bf:cf:27:61:7d:
         df:02:20:0e:64:04:b0:10:43:bd:dc:ea:04:da:59:30:f1:1d:
         45:b8:42:dd:7c:68:00:1b:af:81:d8:b5:ff:03:c8:b1:de
-----BEGIN CERTIFICATE-----
MIIBMTCB2KADAgECAgIQUzAKBggqhkjOPQQDAjAWMRQwEgYDVQQDDAtzcm9zMnRl
c3RDQTAeFw0xOTExMjUwNTE0MzJaFw0yOTExMjIwNTE0MzJaMB8xHTAbBgNVBAMM
FC9zdGRfbXNnc19pbnQzMl90bXAwMFkwEwYHKoZIzj0CAQYIKoZIzj0DAQcDQgAE
fdr4F5te3CQERX6/kXcWJwbHHbELEZUh7N2ZEMD1bcveuwg17nPwnj4ipL33wYKV
hAQFNI91RBxGqgoXTYn+uKMNMAswCQYDVR0TBAIwADAKBggqhkjOPQQDAgNIADBF
AiEAudxkiZxuR6hf+VPZYJF4UcSCTdmzQAtIeqa/zydhfd8CIA5kBLAQQ73c6gTa
WTDxHUW4Qt18aAAbr4HYtf8DyLHe
-----END CERTIFICATE-----
