Certificate:
    Data:
        Version: 3 (0x2)
        Serial Number: 4180 (0x1054)
        Signature Algorithm: ecdsa-with-SHA256
        Issuer: CN=sros2testCA
        Validity
            Not Before: Nov 25 05:35:30 2019 GMT
            Not After : Nov 22 05:35:30 2029 GMT
        Subject: CN=/sensor_msgs_image_tmp0
        Subject Public Key Info:
            Public Key Algorithm: id-ecPublicKey
                Public-Key: (256 bit)
                pub:
                    04:74:67:b1:d4:b5:08:50:fa:b9:23:04:31:a9:45:
                    e0:2a:68:f5:d8:d1:ad:19:e3:c7:7e:8f:7b:cd:18:
                    17:8b:cf:5b:92:6b:77:bc:fc:78:11:4d:98:22:ef:
                    d6:64:98:82:b5:4a:22:86:81:1f:e9:53:46:06:84:
                    cf:7a:2b:1d:b1
                ASN1 OID: prime256v1
                NIST CURVE: P-256
        X509v3 extensions:
            X509v3 Basic Constraints: 
                CA:FALSE
    Signature Algorithm: ecdsa-with-SHA256
         30:44:02:20:03:ff:b9:59:05:64:35:bc:9e:a3:ac:d4:97:b5:
         83:7c:24:65:5a:21:16:ce:9a:43:4b:18:8f:6a:b6:83:41:5d:
         02:20:7b:90:41:9f:6d:75:83:f8:af:97:d5:87:65:62:0f:38:
         b0:2b:65:61:43:df:48:52:0f:61:b9:1f:f6:08:f2:f7
-----BEGIN CERTIFICATE-----
MIIBMzCB26ADAgECAgIQVDAKBggqhkjOPQQDAjAWMRQwEgYDVQQDDAtzcm9zMnRl
c3RDQTAeFw0xOTExMjUwNTM1MzBaFw0yOTExMjIwNTM1MzBaMCIxIDAeBgNVBAMM
Fy9zZW5zb3JfbXNnc19pbWFnZV90bXAwMFkwEwYHKoZIzj0CAQYIKoZIzj0DAQcD
QgAEdGex1LUIUPq5IwQxqUXgKmj12NGtGePHfo97zRgXi89bkmt3vPx4EU2YIu/W
ZJiCtUoihoEf6VNGBoTPeisdsaMNMAswCQYDVR0TBAIwADAKBggqhkjOPQQDAgNH
ADBEAiAD/7lZBWQ1vJ6jrNSXtYN8JGVaIRbOmkNLGI9qtoNBXQIge5BBn211g/iv
l9WHZWIPOLArZWFD30hSD2G5H/YI8vc=
-----END CERTIFICATE-----
