Certificate:
    Data:
        Version: 3 (0x2)
        Serial Number: 4181 (0x1055)
        Signature Algorithm: ecdsa-with-SHA256
        Issuer: CN=sros2testCA
        Validity
            Not Before: Nov 25 08:03:53 2019 GMT
            Not After : Nov 22 08:03:53 2029 GMT
        Subject: CN=/sensor_msgs_image_tmp0
        Subject Public Key Info:
            Public Key Algorithm: id-ecPublicKey
                Public-Key: (256 bit)
                pub:
                    04:89:e6:a0:44:e9:69:c5:47:59:8b:af:5f:d0:bc:
                    75:be:8c:93:50:2a:55:21:0b:05:e7:c2:89:05:7d:
                    60:f7:4b:70:99:c1:65:d2:79:2b:33:0a:e2:8f:18:
                    70:ab:cc:34:89:5d:70:c5:1a:bc:78:65:d7:04:56:
                    26:05:f1:c4:e7
                ASN1 OID: prime256v1
                NIST CURVE: P-256
        X509v3 extensions:
            X509v3 Basic Constraints: 
                CA:FALSE
    Signature Algorithm: ecdsa-with-SHA256
         30:46:02:21:00:f3:58:d8:df:f2:1b:8e:b6:2e:ca:a1:63:b5:
         58:cf:cf:69:ed:16:18:6e:2a:a8:6b:5c:a1:0b:a3:7a:18:3d:
         56:02:21:00:e1:68:d2:0e:9e:ef:4e:cf:a4:d4:31:1f:43:86:
         3c:c5:13:1a:79:4a:ca:90:d8:91:af:2d:25:2e:24:0c:3c:41
-----BEGIN CERTIFICATE-----
MIIBNTCB26ADAgECAgIQVTAKBggqhkjOPQQDAjAWMRQwEgYDVQQDDAtzcm9zMnRl
c3RDQTAeFw0xOTExMjUwODAzNTNaFw0yOTExMjIwODAzNTNaMCIxIDAeBgNVBAMM
Fy9zZW5zb3JfbXNnc19pbWFnZV90bXAwMFkwEwYHKoZIzj0CAQYIKoZIzj0DAQcD
QgAEieagROlpxUdZi69f0Lx1voyTUCpVIQsF58KJBX1g90twmcFl0nkrMwrijxhw
q8w0iV1wxRq8eGXXBFYmBfHE56MNMAswCQYDVR0TBAIwADAKBggqhkjOPQQDAgNJ
ADBGAiEA81jY3/IbjrYuyqFjtVjPz2ntFhhuKqhrXKELo3oYPVYCIQDhaNIOnu9O
z6TUMR9DhjzFExp5SsqQ2JGvLSUuJAw8QQ==
-----END CERTIFICATE-----
