Certificate:
    Data:
        Version: 3 (0x2)
        Serial Number: 4182 (0x1056)
        Signature Algorithm: ecdsa-with-SHA256
        Issuer: CN=sros2testCA
        Validity
            Not Before: Nov 25 08:04:56 2019 GMT
            Not After : Nov 22 08:04:56 2029 GMT
        Subject: CN=/sensor_msgs_image_tmp0
        Subject Public Key Info:
            Public Key Algorithm: id-ecPublicKey
                Public-Key: (256 bit)
                pub:
                    04:e8:c7:e9:b1:f3:b8:4c:64:b1:b6:57:a1:ce:6c:
                    3d:62:1d:b4:7f:8a:75:d4:fb:57:b3:82:6f:89:9d:
                    23:25:90:56:24:f3:7b:db:f3:a6:ff:ad:01:e6:bb:
                    05:fa:fd:a1:31:fa:db:74:25:0e:fe:f5:40:96:b5:
                    df:03:57:22:79
                ASN1 OID: prime256v1
                NIST CURVE: P-256
        X509v3 extensions:
            X509v3 Basic Constraints: 
                CA:FALSE
    Signature Algorithm: ecdsa-with-SHA256
         30:46:02:21:00:8d:b3:a9:73:af:e3:2d:d3:af:3b:a0:14:db:
         8a:fa:6a:30:8f:e0:1c:eb:37:a5:0e:b4:bd:92:85:0f:e4:14:
         47:02:21:00:bc:19:88:43:84:72:3c:dc:3d:34:d1:2d:49:50:
         f4:04:6e:37:b4:cf:db:8e:83:16:f1:8d:b9:39:d6:ca:27:81
-----BEGIN CERTIFICATE-----
MIIBNTCB26ADAgECAgIQVjAKBggqhkjOPQQDAjAWMRQwEgYDVQQDDAtzcm9zMnRl
c3RDQTAeFw0xOTExMjUwODA0NTZaFw0yOTExMjIwODA0NTZaMCIxIDAeBgNVBAMM
Fy9zZW5zb3JfbXNnc19pbWFnZV90bXAwMFkwEwYHKoZIzj0CAQYIKoZIzj0DAQcD
QgAE6MfpsfO4TGSxtlehzmw9Yh20f4p11PtXs4JviZ0jJZBWJPN72/Om/60B5rsF
+v2hMfrbdCUO/vVAlrXfA1cieaMNMAswCQYDVR0TBAIwADAKBggqhkjOPQQDAgNJ
ADBGAiEAjbOpc6/jLdOvO6AU24r6ajCP4BzrN6UOtL2ShQ/kFEcCIQC8GYhDhHI8
3D000S1JUPQEbje0z9uOgxbxjbk51songQ==
-----END CERTIFICATE-----
