Certificate:
    Data:
        Version: 3 (0x2)
        Serial Number: 4183 (0x1057)
        Signature Algorithm: ecdsa-with-SHA256
        Issuer: CN=sros2testCA
        Validity
            Not Before: Nov 25 08:05:25 2019 GMT
            Not After : Nov 22 08:05:25 2029 GMT
        Subject: CN=/std_msgs_string_tmp0
        Subject Public Key Info:
            Public Key Algorithm: id-ecPublicKey
                Public-Key: (256 bit)
                pub:
                    04:33:d1:02:68:85:b5:62:9e:f6:8d:f9:57:99:9f:
                    72:e9:07:52:8d:bb:82:d0:21:25:58:03:da:17:44:
                    99:67:97:3e:3e:20:0f:e8:93:60:66:20:ae:3d:fb:
                    48:4c:48:43:40:a6:00:2e:df:a6:9e:da:89:0b:15:
                    7d:b9:6e:6a:2f
                ASN1 OID: prime256v1
                NIST CURVE: P-256
        X509v3 extensions:
            X509v3 Basic Constraints: 
                CA:FALSE
    Signature Algorithm: ecdsa-with-SHA256
         30:44:02:20:6c:c3:d3:b6:db:3d:8c:73:48:36:45:a1:33:02:
         1a:0a:eb:c0:c1:ea:b2:d0:69:51:70:a7:af:4e:68:bc:d2:02:
         02:20:5c:0d:a6:b9:3a:9c:6f:63:6a:15:18:0b:d6:54:b7:c1:
         45:8e:15:97:9f:94:20:48:d3:be:a0:73:83:70:22:39
-----BEGIN CERTIFICATE-----
MIIBMTCB2aADAgECAgIQVzAKBggqhkjOPQQDAjAWMRQwEgYDVQQDDAtzcm9zMnRl
c3RDQTAeFw0xOTExMjUwODA1MjVaFw0yOTExMjIwODA1MjVaMCAxHjAcBgNVBAMM
FS9zdGRfbXNnc19zdHJpbmdfdG1wMDBZMBMGByqGSM49AgEGCCqGSM49AwEHA0IA
BDPRAmiFtWKe9o35V5mfcukHUo27gtAhJVgD2hdEmWeXPj4gD+iTYGYgrj37SExI
Q0CmAC7fpp7aiQsVfbluai+jDTALMAkGA1UdEwQCMAAwCgYIKoZIzj0EAwIDRwAw
RAIgbMPTtts9jHNINkWhMwIaCuvAweqy0GlRcKevTmi80gICIFwNprk6nG9jahUY
C9ZUt8FFjhWXn5QgSNO+oHODcCI5
-----END CERTIFICATE-----
