Certificate:
    Data:
        Version: 3 (0x2)
        Serial Number: 4184 (0x1058)
        Signature Algorithm: ecdsa-with-SHA256
        Issuer: CN=sros2testCA
        Validity
            Not Before: Nov 25 08:05:29 2019 GMT
            Not After : Nov 22 08:05:29 2029 GMT
        Subject: CN=/std_msgs_int32_tmp0
        Subject Public Key Info:
            Public Key Algorithm: id-ecPublicKey
                Public-Key: (256 bit)
                pub:
                    04:0e:ef:92:30:aa:3f:66:6c:1c:a9:e5:e8:2e:0b:
                    f4:3b:80:28:f7:10:eb:17:44:e9:6b:a3:b0:67:89:
                    95:c7:34:ab:2f:2f:16:fb:56:5d:b9:46:3b:fb:f6:
                    c5:c3:dd:9a:25:68:e4:63:06:47:a6:c0:45:b4:5e:
                    0d:f5:91:ef:f6
                ASN1 OID: prime256v1
                NIST CURVE: P-256
        X509v3 extensions:
            X509v3 Basic Constraints: 
                CA:FALSE
    Signature Algorithm: ecdsa-with-SHA256
         30:44:02:20:0b:bb:d2:10:dd:16:3c:ff:e2:b7:cf:87:ef:03:
         20:4c:0c:95:40:39:ff:4b:2e:86:f5:67:cb:18:b1:11:8a:a1:
         02:20:42:e1:55:ee:71:ed:76:27:e5:f3:c6:95:bd:87:81:ed:
         89:af:2d:1c:88:5f:2d:e9:d8:c7:4f:3a:d8:56:09:20
-----BEGIN CERTIFICATE-----
MIIBMDCB2KADAgECAgIQWDAKBggqhkjOPQQDAjAWMRQwEgYDVQQDDAtzcm9zMnRl
c3RDQTAeFw0xOTExMjUwODA1MjlaFw0yOTExMjIwODA1MjlaMB8xHTAbBgNVBAMM
FC9zdGRfbXNnc19pbnQzMl90bXAwMFkwEwYHKoZIzj0CAQYIKoZIzj0DAQcDQgAE
Du+SMKo/ZmwcqeXoLgv0O4Ao9xDrF0Tpa6OwZ4mVxzSrLy8W+1ZduUY7+/bFw92a
JWjkYwZHpsBFtF4N9ZHv9qMNMAswCQYDVR0TBAIwADAKBggqhkjOPQQDAgNHADBE
AiALu9IQ3RY8/+K3z4fvAyBMDJVAOf9LLob1Z8sYsRGKoQIgQuFV7nHtdifl88aV
vYeB7YmvLRyIXy3p2MdPOthWCSA=
-----END CERTIFICATE-----
