Certificate:
    Data:
        Version: 3 (0x2)
        Serial Number: 4185 (0x1059)
        Signature Algorithm: ecdsa-with-SHA256
        Issuer: CN=sros2testCA
        Validity
            Not Before: Nov 25 08:07:05 2019 GMT
            Not After : Nov 22 08:07:05 2029 GMT
        Subject: CN=/sensor_msgs_image_tmp0
        Subject Public Key Info:
            Public Key Algorithm: id-ecPublicKey
                Public-Key: (256 bit)
                pub:
                    04:7d:18:f3:f3:9a:50:75:33:03:c8:93:5d:49:89:
                    4e:c1:c3:fc:b8:ec:de:e9:a0:9e:19:0c:d3:ac:15:
                    fd:16:24:f3:e5:e6:69:c8:07:ff:81:ab:20:04:9e:
                    54:bb:b7:aa:b5:cb:37:47:d0:1e:05:28:ba:e6:29:
                    b7:b8:c8:4d:53
                ASN1 OID: prime256v1
                NIST CURVE: P-256
        X509v3 extensions:
            X509v3 Basic Constraints: 
                CA:FALSE
    Signature Algorithm: ecdsa-with-SHA256
         30:44:02:20:51:d4:e6:d1:b3:eb:6f:dd:37:87:2b:0d:f5:24:
         ff:73:60:d6:e4:59:01:55:4f:c3:18:10:2a:64:86:e5:64:1a:
         02:20:4c:b7:69:f1:6c:36:7c:74:b6:4f:0e:8c:05:5b:8d:a3:
         9f:3d:cd:0a:69:ab:c5:2d:1d:29:5d:1f:9b:98:b6:e5
-----BEGIN CERTIFICATE-----
MIIBMzCB26ADAgECAgIQWTAKBggqhkjOPQQDAjAWMRQwEgYDVQQDDAtzcm9zMnRl
c3RDQTAeFw0xOTExMjUwODA3MDVaFw0yOTExMjIwODA3MDVaMCIxIDAeBgNVBAMM
Fy9zZW5zb3JfbXNnc19pbWFnZV90bXAwMFkwEwYHKoZIzj0CAQYIKoZIzj0DAQcD
QgAEfRjz85pQdTMDyJNdSYlOwcP8uOze6aCeGQzTrBX9FiTz5eZpyAf/gasgBJ5U
u7eqtcs3R9AeBSi65im3uMhNU6MNMAswCQYDVR0TBAIwADAKBggqhkjOPQQDAgNH
ADBEAiBR1ObRs+tv3TeHKw31JP9zYNbkWQFVT8MYECpkhuVkGgIgTLdp8Ww2fHS2
Tw6MBVuNo589zQppq8UtHSldH5uYtuU=
-----END CERTIFICATE-----
