Certificate:
    Data:
        Version: 3 (0x2)
        Serial Number: 4186 (0x105a)
        Signature Algorithm: ecdsa-with-SHA256
        Issuer: CN=sros2testCA
        Validity
            Not Before: Dec 14 06:07:19 2019 GMT
            Not After : Dec 11 06:07:19 2029 GMT
        Subject: CN=/std_msgs_string_tmp0
        Subject Public Key Info:
            Public Key Algorithm: id-ecPublicKey
                Public-Key: (256 bit)
                pub:
                    04:93:d7:45:3e:51:8a:f2:ad:2b:66:63:c9:ae:cc:
                    f5:b3:4e:f4:51:99:62:0c:6e:bb:a1:a2:3f:73:1e:
                    3a:e8:c7:95:3c:ba:94:ad:65:0c:4a:a8:e9:fc:82:
                    23:b1:f0:ae:f5:23:4d:47:35:bb:18:98:30:ce:20:
                    51:7e:b5:64:d6
                ASN1 OID: prime256v1
                NIST CURVE: P-256
        X509v3 extensions:
            X509v3 Basic Constraints: 
                CA:FALSE
    Signature Algorithm: ecdsa-with-SHA256
         30:45:02:21:00:e6:5e:13:ad:6c:a2:31:8b:92:98:40:55:18:
         f3:1a:aa:5c:29:32:c5:1e:70:c4:0c:ab:a3:30:29:42:7b:30:
         41:02:20:71:43:a3:85:95:96:62:4a:e2:43:b6:17:75:12:1c:
         3c:33:91:ad:d9:24:89:d9:29:dd:19:f3:f8:47:ab:f5:76
-----BEGIN CERTIFICATE-----
MIIBMjCB2aADAgECAgIQWjAKBggqhkjOPQQDAjAWMRQwEgYDVQQDDAtzcm9zMnRl
c3RDQTAeFw0xOTEyMTQwNjA3MTlaFw0yOTEyMTEwNjA3MTlaMCAxHjAcBgNVBAMM
FS9zdGRfbXNnc19zdHJpbmdfdG1wMDBZMBMGByqGSM49AgEGCCqGSM49AwEHA0IA
BJPXRT5RivKtK2Zjya7M9bNO9FGZYgxuu6GiP3MeOujHlTy6lK1lDEqo6fyCI7Hw
rvUjTUc1uxiYMM4gUX61ZNajDTALMAkGA1UdEwQCMAAwCgYIKoZIzj0EAwIDSAAw
RQIhAOZeE61sojGLkphAVRjzGqpcKTLFHnDEDKujMClCezBBAiBxQ6OFlZZiSuJD
thd1Ehw8M5Gt2SSJ2SndGfP4R6v1dg==
-----END CERTIFICATE-----
