Certificate:
    Data:
        Version: 3 (0x2)
        Serial Number: 4187 (0x105b)
        Signature Algorithm: ecdsa-with-SHA256
        Issuer: CN=sros2testCA
        Validity
            Not Before: Dec 14 06:07:22 2019 GMT
            Not After : Dec 11 06:07:22 2029 GMT
        Subject: CN=/std_msgs_int32_tmp0
        Subject Public Key Info:
            Public Key Algorithm: id-ecPublicKey
                Public-Key: (256 bit)
                pub:
                    04:7e:06:59:2b:26:a5:93:f2:64:85:e2:03:f2:05:
                    47:0b:6b:1d:3f:97:de:f0:6a:cc:fe:08:09:3f:fe:
                    d7:a0:4b:26:74:a0:19:0a:d6:72:6a:78:cf:7f:15:
                    06:13:65:15:40:f9:c8:5c:39:6d:15:a0:f3:72:b6:
                    ae:77:10:ce:d8
                ASN1 OID: prime256v1
                NIST CURVE: P-256
        X509v3 extensions:
            X509v3 Basic Constraints: 
                CA:FALSE
    Signature Algorithm: ecdsa-with-SHA256
         30:45:02:20:27:7e:32:93:cf:7d:10:42:c8:0a:5e:c1:0a:fd:
         09:a0:f5:cb:c8:44:f4:1a:a6:53:2c:3c:4d:a1:2b:0c:f8:ac:
         02:21:00:87:0a:db:73:33:bc:ce:f8:62:6c:6d:bc:22:63:25:
         1a:21:14:a6:98:aa:9d:a8:1e:93:39:2b:12:97:8a:e0:cb
-----BEGIN CERTIFICATE-----
MIIBMTCB2KADAgECAgIQWzAKBggqhkjOPQQDAjAWMRQwEgYDVQQDDAtzcm9zMnRl
c3RDQTAeFw0xOTEyMTQwNjA3MjJaFw0yOTEyMTEwNjA3MjJaMB8xHTAbBgNVBAMM
FC9zdGRfbXNnc19pbnQzMl90bXAwMFkwEwYHKoZIzj0CAQYIKoZIzj0DAQcDQgAE
fgZZKyalk/JkheID8gVHC2sdP5fe8GrM/ggJP/7XoEsmdKAZCtZyanjPfxUGE2UV
QPnIXDltFaDzcraudxDO2KMNMAswCQYDVR0TBAIwADAKBggqhkjOPQQDAgNIADBF
AiAnfjKTz30QQsgKXsEK/Qmg9cvIRPQaplMsPE2hKwz4rAIhAIcK23MzvM74Ymxt
vCJjJRohFKaYqp2oHpM5KxKXiuDL
-----END CERTIFICATE-----
