Certificate:
    Data:
        Version: 3 (0x2)
        Serial Number: 4188 (0x105c)
        Signature Algorithm: ecdsa-with-SHA256
        Issuer: CN=sros2testCA
        Validity
            Not Before: Dec 14 06:10:21 2019 GMT
            Not After : Dec 11 06:10:21 2029 GMT
        Subject: CN=/std_msgs_string_tmp0
        Subject Public Key Info:
            Public Key Algorithm: id-ecPublicKey
                Public-Key: (256 bit)
                pub:
                    04:14:d0:02:9e:ed:e7:b5:dc:07:96:8b:53:f0:82:
                    4a:14:7b:2d:be:22:59:38:cf:72:2f:72:67:7e:d3:
                    07:fa:a4:51:fb:6c:42:be:b1:a8:cd:f4:c6:af:0d:
                    41:08:36:73:3e:39:67:c2:c4:78:d7:5d:4e:64:51:
                    3b:52:ba:c4:c9
                ASN1 OID: prime256v1
                NIST CURVE: P-256
        X509v3 extensions:
            X509v3 Basic Constraints: 
                CA:FALSE
    Signature Algorithm: ecdsa-with-SHA256
         30:46:02:21:00:e7:e6:74:b0:f8:7e:dd:c2:cc:20:57:f3:e5:
         02:28:4f:6a:d1:9f:95:0f:cc:04:4e:c0:c7:5b:fc:fd:a1:8e:
         69:02:21:00:b8:40:9b:22:7c:af:c1:39:e6:f7:4d:4a:10:61:
         27:d6:c8:cf:10:48:f0:e4:2c:c5:9a:47:1c:f4:a1:da:1b:53
-----BEGIN CERTIFICATE-----
MIIBMzCB2aADAgECAgIQXDAKBggqhkjOPQQDAjAWMRQwEgYDVQQDDAtzcm9zMnRl
c3RDQTAeFw0xOTEyMTQwNjEwMjFaFw0yOTEyMTEwNjEwMjFaMCAxHjAcBgNVBAMM
FS9zdGRfbXNnc19zdHJpbmdfdG1wMDBZMBMGByqGSM49AgEGCCqGSM49AwEHA0IA
BBTQAp7t57XcB5aLU/CCShR7Lb4iWTjPci9yZ37TB/qkUftsQr6xqM30xq8NQQg2
cz45Z8LEeNddTmRRO1K6xMmjDTALMAkGA1UdEwQCMAAwCgYIKoZIzj0EAwIDSQAw
RgIhAOfmdLD4ft3CzCBX8+UCKE9q0Z+VD8wETsDHW/z9oY5pAiEAuECbInyvwTnm
901KEGEn1sjPEEjw5CzFmkcc9KHaG1M=
-----END CERTIFICATE-----
