Certificate:
    Data:
        Version: 3 (0x2)
        Serial Number: 4189 (0x105d)
        Signature Algorithm: ecdsa-with-SHA256
        Issuer: CN=sros2testCA
        Validity
            Not Before: Dec 14 06:10:25 2019 GMT
            Not After : Dec 11 06:10:25 2029 GMT
        Subject: CN=/std_msgs_int32_tmp0
        Subject Public Key Info:
            Public Key Algorithm: id-ecPublicKey
                Public-Key: (256 bit)
                pub:
                    04:ed:95:81:fb:8c:f1:5e:6c:9a:70:e2:8d:2f:fc:
                    e9:a5:72:33:b4:09:ca:e6:ad:8d:ed:14:25:aa:27:
                    99:1e:8f:09:e6:45:3a:31:2c:d1:d2:6a:6c:7a:2c:
                    20:55:ca:50:69:27:1a:d7:a9:90:f0:d3:dc:77:e2:
                    6d:f6:88:24:be
                ASN1 OID: prime256v1
                NIST CURVE: P-256
        X509v3 extensions:
            X509v3 Basic Constraints: 
                CA:FALSE
    Signature Algorithm: ecdsa-with-SHA256
         30:45:02:20:11:f4:90:e7:4a:61:d5:b9:8d:d5:ce:d7:14:0c:
         ce:4e:f1:ba:01:d4:21:94:1c:8a:5b:74:ac:68:c2:60:bf:e8:
         02:21:00:94:0e:f2:29:2a:af:c7:e2:86:e2:0b:b0:b6:d8:bf:
         70:a9:28:07:de:2a:fd:2a:3a:65:ba:cf:8f:37:31:d3:9f
-----BEGIN CERTIFICATE-----
MIIBMTCB2KADAgECAgIQXTAKBggqhkjOPQQDAjAWMRQwEgYDVQQDDAtzcm9zMnRl
c3RDQTAeFw0xOTEyMTQwNjEwMjVaFw0yOTEyMTEwNjEwMjVaMB8xHTAbBgNVBAMM
FC9zdGRfbXNnc19pbnQzMl90bXAwMFkwEwYHKoZIzj0CAQYIKoZIzj0DAQcDQgAE
7ZWB+4zxXmyacOKNL/zppXIztAnK5q2N7RQlqieZHo8J5kU6MSzR0mpseiwgVcpQ
aSca16mQ8NPcd+Jt9ogkvqMNMAswCQYDVR0TBAIwADAKBggqhkjOPQQDAgNIADBF
AiAR9JDnSmHVuY3VztcUDM5O8boB1CGUHIpbdKxowmC/6AIhAJQO8ikqr8fihuIL
sLbYv3CpKAfeKv0qOmW6z483MdOf
-----END CERTIFICATE-----
