Certificate:
    Data:
        Version: 3 (0x2)
        Serial Number: 4190 (0x105e)
        Signature Algorithm: ecdsa-with-SHA256
        Issuer: CN=sros2testCA
        Validity
            Not Before: Dec 14 06:12:23 2019 GMT
            Not After : Dec 11 06:12:23 2029 GMT
        Subject: CN=/std_msgs_string_tmp0
        Subject Public Key Info:
            Public Key Algorithm: id-ecPublicKey
                Public-Key: (256 bit)
                pub:
                    04:75:c6:52:79:b7:c6:20:35:d7:7e:08:8e:14:2d:
                    34:9b:e3:b5:d4:df:e4:24:d3:e0:1c:f7:db:94:dd:
                    d1:8b:31:7e:e5:33:a7:4e:f9:2d:fa:6e:e2:79:8f:
                    6c:73:12:cf:23:3a:53:fd:c4:5f:00:55:29:7d:e0:
                    50:74:91:e2:67
                ASN1 OID: prime256v1
                NIST CURVE: P-256
        X509v3 extensions:
            X509v3 Basic Constraints: 
                CA:FALSE
    Signature Algorithm: ecdsa-with-SHA256
         30:45:02:20:4b:3f:86:bb:0b:f9:3f:2b:5e:64:96:18:4a:18:
         c9:f7:53:89:3f:c6:43:ac:6e:a2:75:41:bf:49:ec:43:59:24:
         02:21:00:87:b1:25:be:d9:4f:25:1f:22:9c:e1:2b:26:35:89:
         a4:23:ef:55:89:11:ad:d3:2e:52:80:35:eb:b8:87:01:5c
-----BEGIN CERTIFICATE-----
MIIBMjCB2aADAgECAgIQXjAKBggqhkjOPQQDAjAWMRQwEgYDVQQDDAtzcm9zMnRl
c3RDQTAeFw0xOTEyMTQwNjEyMjNaFw0yOTEyMTEwNjEyMjNaMCAxHjAcBgNVBAMM
FS9zdGRfbXNnc19zdHJpbmdfdG1wMDBZMBMGByqGSM49AgEGCCqGSM49AwEHA0IA
BHXGUnm3xiA1134IjhQtNJvjtdTf5CTT4Bz325Td0YsxfuUzp075Lfpu4nmPbHMS
zyM6U/3EXwBVKX3gUHSR4mejDTALMAkGA1UdEwQCMAAwCgYIKoZIzj0EAwIDSAAw
RQIgSz+Guwv5PyteZJYYShjJ91OJP8ZDrG6idUG/SexDWSQCIQCHsSW+2U8lHyKc
4SsmNYmkI+9ViRGt0y5SgDXruIcBXA==
-----END CERTIFICATE-----
