Certificate:
    Data:
        Version: 3 (0x2)
        Serial Number: 4191 (0x105f)
        Signature Algorithm: ecdsa-with-SHA256
        Issuer: CN=sros2testCA
        Validity
            Not Before: Dec 14 06:12:26 2019 GMT
            Not After : Dec 11 06:12:26 2029 GMT
        Subject: CN=/std_msgs_int32_tmp0
        Subject Public Key Info:
            Public Key Algorithm: id-ecPublicKey
                Public-Key: (256 bit)
                pub:
                    04:07:05:b4:60:9f:26:f5:f7:c0:ad:a4:26:21:38:
                    52:9c:54:25:e3:37:03:be:0c:a6:4d:8a:61:95:cf:
                    d3:b8:b1:44:30:1a:9f:0a:56:be:65:7e:8e:23:2d:
                    12:0a:36:a6:37:01:dd:f9:85:52:40:f5:1a:ce:bc:
                    b9:a7:22:5b:c6
                ASN1 OID: prime256v1
                NIST CURVE: P-256
        X509v3 extensions:
            X509v3 Basic Constraints: 
                CA:FALSE
    Signature Algorithm: ecdsa-with-SHA256
         30:44:02:20:29:da:36:0f:18:c0:2b:dc:02:a2:ae:4c:14:74:
         4f:fd:5b:12:c4:45:0d:00:bc:36:f7:b3:8f:96:6d:16:66:6d:
         02:20:11:f2:71:82:19:4d:88:60:37:8f:54:4e:0d:f9:7d:c2:
         71:c5:f8:61:ae:83:4c:46:7e:a0:5c:ba:0b:64:c2:8a
-----BEGIN CERTIFICATE-----
MIIBMDCB2KADAgECAgIQXzAKBggqhkjOPQQDAjAWMRQwEgYDVQQDDAtzcm9zMnRl
c3RDQTAeFw0xOTEyMTQwNjEyMjZaFw0yOTEyMTEwNjEyMjZaMB8xHTAbBgNVBAMM
FC9zdGRfbXNnc19pbnQzMl90bXAwMFkwEwYHKoZIzj0CAQYIKoZIzj0DAQcDQgAE
BwW0YJ8m9ffAraQmIThSnFQl4zcDvgymTYphlc/TuLFEMBqfCla+ZX6OIy0SCjam
NwHd+YVSQPUazry5pyJbxqMNMAswCQYDVR0TBAIwADAKBggqhkjOPQQDAgNHADBE
AiAp2jYPGMAr3AKirkwUdE/9WxLERQ0AvDb3s4+WbRZmbQIgEfJxghlNiGA3j1RO
Dfl9wnHF+GGug0xGfqBcugtkwoo=
-----END CERTIFICATE-----
