Certificate:
    Data:
        Version: 3 (0x2)
        Serial Number: 4192 (0x1060)
        Signature Algorithm: ecdsa-with-SHA256
        Issuer: CN=sros2testCA
        Validity
            Not Before: Dec 14 06:13:37 2019 GMT
            Not After : Dec 11 06:13:37 2029 GMT
        Subject: CN=/std_msgs_string_tmp0
        Subject Public Key Info:
            Public Key Algorithm: id-ecPublicKey
                Public-Key: (256 bit)
                pub:
                    04:01:6e:c6:42:e4:6e:a9:15:d7:be:5e:c8:81:43:
                    c0:9a:f7:a4:77:e0:a3:a5:4e:34:fc:01:fc:71:d6:
                    24:6f:22:36:0e:e1:ba:6a:fe:94:5f:99:31:47:27:
                    c8:25:ad:0e:78:60:d0:ba:be:4d:e3:ce:83:f3:7c:
                    bd:d4:76:6a:00
                ASN1 OID: prime256v1
                NIST CURVE: P-256
        X509v3 extensions:
            X509v3 Basic Constraints: 
                CA:FALSE
    Signature Algorithm: ecdsa-with-SHA256
         30:45:02:21:00:8c:e5:ec:da:14:df:c7:65:4f:68:7d:42:df:
         cf:0f:2d:25:13:4a:62:7e:1a:39:ec:ce:b4:9a:7b:f7:c7:1f:
         52:02:20:14:3b:c8:c5:41:ac:20:6e:b6:34:05:64:79:2e:58:
         f2:f6:a9:90:8a:aa:23:2a:28:e0:53:eb:27:d1:09:75:c3
-----BEGIN CERTIFICATE-----
MIIBMjCB2aADAgECAgIQYDAKBggqhkjOPQQDAjAWMRQwEgYDVQQDDAtzcm9zMnRl
c3RDQTAeFw0xOTEyMTQwNjEzMzdaFw0yOTEyMTEwNjEzMzdaMCAxHjAcBgNVBAMM
FS9zdGRfbXNnc19zdHJpbmdfdG1wMDBZMBMGByqGSM49AgEGCCqGSM49AwEHA0IA
BAFuxkLkbqkV175eyIFDwJr3pHfgo6VONPwB/HHWJG8iNg7humr+lF+ZMUcnyCWt
Dnhg0Lq+TePOg/N8vdR2agCjDTALMAkGA1UdEwQCMAAwCgYIKoZIzj0EAwIDSAAw
RQIhAIzl7NoU38dlT2h9Qt/PDy0lE0pifho57M60mnv3xx9SAiAUO8jFQawgbrY0
BWR5Lljy9qmQiqojKijgU+sn0Ql1ww==
-----END CERTIFICATE-----
