Certificate:
    Data:
        Version: 3 (0x2)
        Serial Number: 4193 (0x1061)
        Signature Algorithm: ecdsa-with-SHA256
        Issuer: CN=sros2testCA
        Validity
            Not Before: Dec 14 06:13:41 2019 GMT
            Not After : Dec 11 06:13:41 2029 GMT
        Subject: CN=/std_msgs_int32_tmp0
        Subject Public Key Info:
            Public Key Algorithm: id-ecPublicKey
                Public-Key: (256 bit)
                pub:
                    04:ad:ae:9c:ad:40:f6:40:91:1d:aa:41:9a:93:87:
                    7a:f7:bb:8b:41:c5:0b:b6:dd:e4:35:a8:da:80:bf:
                    f9:fa:aa:94:0d:99:69:3d:03:12:47:43:12:d8:3d:
                    9c:8c:ee:b2:d6:8d:e1:30:43:38:7c:5d:ab:b0:72:
                    bd:10:f8:90:1a
                ASN1 OID: prime256v1
                NIST CURVE: P-256
        X509v3 extensions:
            X509v3 Basic Constraints: 
                CA:FALSE
    Signature Algorithm: ecdsa-with-SHA256
         30:45:02:20:42:d1:e1:eb:24:ac:b6:bd:7e:c6:04:88:2a:3a:
         f2:34:dc:54:cd:43:b8:98:d9:3a:76:9d:c3:8b:30:1d:31:23:
         02:21:00:a4:f7:da:11:cf:c2:05:7e:38:d3:83:d6:e9:97:85:
         75:2a:ec:90:52:19:b1:0b:e6:59:d1:44:6b:80:56:b4:45
-----BEGIN CERTIFICATE-----
MIIBMTCB2KADAgECAgIQYTAKBggqhkjOPQQDAjAWMRQwEgYDVQQDDAtzcm9zMnRl
c3RDQTAeFw0xOTEyMTQwNjEzNDFaFw0yOTEyMTEwNjEzNDFaMB8xHTAbBgNVBAMM
FC9zdGRfbXNnc19pbnQzMl90bXAwMFkwEwYHKoZIzj0CAQYIKoZIzj0DAQcDQgAE
ra6crUD2QJEdqkGak4d697uLQcULtt3kNajagL/5+qqUDZlpPQMSR0MS2D2cjO6y
1o3hMEM4fF2rsHK9EPiQGqMNMAswCQYDVR0TBAIwADAKBggqhkjOPQQDAgNIADBF
AiBC0eHrJKy2vX7GBIgqOvI03FTNQ7iY2Tp2ncOLMB0xIwIhAKT32hHPwgV+ONOD
1umXhXUq7JBSGbEL5lnRRGuAVrRF
-----END CERTIFICATE-----
