Certificate:
    Data:
        Version: 3 (0x2)
        Serial Number: 4194 (0x1062)
        Signature Algorithm: ecdsa-with-SHA256
        Issuer: CN=sros2testCA
        Validity
            Not Before: Dec 14 07:00:58 2019 GMT
            Not After : Dec 11 07:00:58 2029 GMT
        Subject: CN=/std_msgs_string_tmp0
        Subject Public Key Info:
            Public Key Algorithm: id-ecPublicKey
                Public-Key: (256 bit)
                pub:
                    04:52:82:d8:7b:75:d8:40:a0:d0:9b:a0:ae:34:b6:
                    8f:96:ed:7a:ea:fb:ae:98:7e:ad:73:9a:8e:65:7f:
                    cd:cc:a9:8d:c4:67:29:f9:f5:19:86:2f:c8:90:6a:
                    29:00:7e:b3:b6:87:de:59:5e:31:73:28:57:ba:3e:
                    55:98:dc:42:27
                ASN1 OID: prime256v1
                NIST CURVE: P-256
        X509v3 extensions:
            X509v3 Basic Constraints: 
                CA:FALSE
    Signature Algorithm: ecdsa-with-SHA256
         30:45:02:21:00:bf:8a:c2:6f:54:d3:75:70:68:d7:78:49:9e:
         51:0d:6d:07:d5:27:ce:b7:80:15:56:b5:58:d6:07:01:9c:49:
         ff:02:20:5d:5c:c7:ee:e7:c5:f2:ca:38:97:cd:7f:22:69:c3:
         a4:05:43:ed:1f:62:52:6d:e1:e9:86:24:5d:b1:d0:a7:1c
-----BEGIN CERTIFICATE-----
MIIBMjCB2aADAgECAgIQYjAKBggqhkjOPQQDAjAWMRQwEgYDVQQDDAtzcm9zMnRl
c3RDQTAeFw0xOTEyMTQwNzAwNThaFw0yOTEyMTEwNzAwNThaMCAxHjAcBgNVBAMM
FS9zdGRfbXNnc19zdHJpbmdfdG1wMDBZMBMGByqGSM49AgEGCCqGSM49AwEHA0IA
BFKC2Ht12ECg0JugrjS2j5bteur7rph+rXOajmV/zcypjcRnKfn1GYYvyJBqKQB+
s7aH3lleMXMoV7o+VZjcQiejDTALMAkGA1UdEwQCMAAwCgYIKoZIzj0EAwIDSAAw
RQIhAL+Kwm9U03VwaNd4SZ5RDW0H1SfOt4AVVrVY1gcBnEn/AiBdXMfu58XyyjiX
zX8iacOkBUPtH2JSbeHphiRdsdCnHA==
-----END CERTIFICATE-----
