Certificate:
    Data:
        Version: 3 (0x2)
        Serial Number: 4195 (0x1063)
        Signature Algorithm: ecdsa-with-SHA256
        Issuer: CN=sros2testCA
        Validity
            Not Before: Dec 14 07:01:01 2019 GMT
            Not After : Dec 11 07:01:01 2029 GMT
        Subject: CN=/std_msgs_int32_tmp0
        Subject Public Key Info:
            Public Key Algorithm: id-ecPublicKey
                Public-Key: (256 bit)
                pub:
                    04:8e:fb:d4:4f:c8:48:e8:3a:11:3f:84:e3:f4:2f:
                    34:c3:12:75:07:97:70:15:46:ae:a1:ad:83:75:56:
                    4c:d7:f4:d1:40:04:5b:25:1d:1e:5e:97:9f:ea:e2:
                    a7:75:58:2c:94:b2:37:53:15:a4:af:a5:e9:17:30:
                    05:33:e8:7f:bf
                ASN1 OID: prime256v1
                NIST CURVE: P-256
        X509v3 extensions:
            X509v3 Basic Constraints: 
                CA:FALSE
    Signature Algorithm: ecdsa-with-SHA256
         30:44:02:20:7e:e3:9a:e5:85:07:cc:d0:88:7c:7a:6f:3d:e2:
         2d:d5:c7:6e:d7:a6:ab:ab:36:b5:4e:96:66:c3:aa:2a:f8:b4:
         02:20:42:e3:82:f4:94:ef:9d:ea:ad:f7:14:99:f5:3c:54:e6:
         1d:3e:e2:a1:7d:05:9c:1b:3a:5d:0a:86:da:48:2d:4a
-----BEGIN CERTIFICATE-----
MIIBMDCB2KADAgECAgIQYzAKBggqhkjOPQQDAjAWMRQwEgYDVQQDDAtzcm9zMnRl
c3RDQTAeFw0xOTEyMTQwNzAxMDFaFw0yOTEyMTEwNzAxMDFaMB8xHTAbBgNVBAMM
FC9zdGRfbXNnc19pbnQzMl90bXAwMFkwEwYHKoZIzj0CAQYIKoZIzj0DAQcDQgAE
jvvUT8hI6DoRP4Tj9C80wxJ1B5dwFUauoa2DdVZM1/TRQARbJR0eXpef6uKndVgs
lLI3UxWkr6XpFzAFM+h/v6MNMAswCQYDVR0TBAIwADAKBggqhkjOPQQDAgNHADBE
AiB+45rlhQfM0Ih8em894i3Vx27XpqurNrVOlmbDqir4tAIgQuOC9JTvneqt9xSZ
9TxU5h0+4qF9BZwbOl0KhtpILUo=
-----END CERTIFICATE-----
