Certificate:
    Data:
        Version: 3 (0x2)
        Serial Number: 4196 (0x1064)
        Signature Algorithm: ecdsa-with-SHA256
        Issuer: CN=sros2testCA
        Validity
            Not Before: Dec 14 13:45:06 2019 GMT
            Not After : Dec 11 13:45:06 2029 GMT
        Subject: CN=/sensor_msgs_image_tmp0
        Subject Public Key Info:
            Public Key Algorithm: id-ecPublicKey
                Public-Key: (256 bit)
                pub:
                    04:f7:de:7b:21:fd:31:e9:92:ea:2f:48:03:82:fc:
                    76:08:6f:5d:92:3d:aa:0a:61:91:45:b0:73:84:b3:
                    01:56:68:18:c7:fc:23:db:75:53:50:5f:b3:29:ef:
                    4d:1b:31:bc:eb:66:b9:bb:67:08:53:7b:62:09:5c:
                    e6:bd:db:c1:80
                ASN1 OID: prime256v1
                NIST CURVE: P-256
        X509v3 extensions:
            X509v3 Basic Constraints: 
                CA:FALSE
    Signature Algorithm: ecdsa-with-SHA256
         30:46:02:21:00:89:60:7a:b2:00:65:1a:f3:35:30:69:83:89:
         0d:bf:bc:4a:f7:22:cc:38:71:23:c9:af:95:00:f4:4e:f8:32:
         5c:02:21:00:9e:ba:c1:6e:96:e8:d6:f6:4a:ed:c2:d4:05:61:
         8d:5b:d4:47:84:5f:e6:7a:dd:8e:5b:62:14:0d:0b:ae:1e:aa
-----BEGIN CERTIFICATE-----
MIIBNTCB26ADAgECAgIQZDAKBggqhkjOPQQDAjAWMRQwEgYDVQQDDAtzcm9zMnRl
c3RDQTAeFw0xOTEyMTQxMzQ1MDZaFw0yOTEyMTExMzQ1MDZaMCIxIDAeBgNVBAMM
Fy9zZW5zb3JfbXNnc19pbWFnZV90bXAwMFkwEwYHKoZIzj0CAQYIKoZIzj0DAQcD
QgAE9957If0x6ZLqL0gDgvx2CG9dkj2qCmGRRbBzhLMBVmgYx/wj23VTUF+zKe9N
GzG862a5u2cIU3tiCVzmvdvBgKMNMAswCQYDVR0TBAIwADAKBggqhkjOPQQDAgNJ
ADBGAiEAiWB6sgBlGvM1MGmDiQ2/vEr3Isw4cSPJr5UA9E74MlwCIQCeusFulujW
9krtwtQFYY1b1EeEX+Z63Y5bYhQNC64eqg==
-----END CERTIFICATE-----
