Certificate:
    Data:
        Version: 3 (0x2)
        Serial Number: 4197 (0x1065)
        Signature Algorithm: ecdsa-with-SHA256
        Issuer: CN=sros2testCA
        Validity
            Not Before: Dec 14 13:49:59 2019 GMT
            Not After : Dec 11 13:49:59 2029 GMT
        Subject: CN=/sensor_msgs_image_tmp0
        Subject Public Key Info:
            Public Key Algorithm: id-ecPublicKey
                Public-Key: (256 bit)
                pub:
                    04:b2:ba:26:ca:32:c4:54:21:34:97:03:04:d5:cd:
                    57:1a:2b:f4:1c:e1:32:ef:4f:d6:73:56:81:ca:f2:
                    81:b2:a1:7c:32:6b:32:d5:0a:6c:ff:50:1f:1f:7b:
                    84:d4:06:ca:e8:1d:2d:23:b2:19:a0:39:ba:2b:3f:
                    b8:67:2b:95:80
                ASN1 OID: prime256v1
                NIST CURVE: P-256
        X509v3 extensions:
            X509v3 Basic Constraints: 
                CA:FALSE
    Signature Algorithm: ecdsa-with-SHA256
         30:44:02:20:10:3d:59:3f:6c:e8:6a:9d:68:01:30:8c:e7:38:
         36:bb:a4:23:6e:f0:3a:09:51:b2:3a:23:ea:dc:8f:5f:24:ae:
         02:20:3e:24:22:3a:e1:9e:c4:d7:d3:87:99:93:0b:19:50:f3:
         a7:b1:cc:77:b2:53:61:b8:06:4d:8b:d5:6d:5b:4d:22
-----BEGIN CERTIFICATE-----
MIIBMzCB26ADAgECAgIQZTAKBggqhkjOPQQDAjAWMRQwEgYDVQQDDAtzcm9zMnRl
c3RDQTAeFw0xOTEyMTQxMzQ5NTlaFw0yOTEyMTExMzQ5NTlaMCIxIDAeBgNVBAMM
Fy9zZW5zb3JfbXNnc19pbWFnZV90bXAwMFkwEwYHKoZIzj0CAQYIKoZIzj0DAQcD
QgAEsromyjLEVCE0lwME1c1XGiv0HOEy70/Wc1aByvKBsqF8Mmsy1Qps/1AfH3uE
1AbK6B0tI7IZoDm6Kz+4ZyuVgKMNMAswCQYDVR0TBAIwADAKBggqhkjOPQQDAgNH
ADBEAiAQPVk/bOhqnWgBMIznODa7pCNu8DoJUbI6I+rcj18krgIgPiQiOuGexNfT
h5mTCxlQ86exzHeyU2G4Bk2L1W1bTSI=
-----END CERTIFICATE-----
