Certificate:
    Data:
        Version: 3 (0x2)
        Serial Number: 4198 (0x1066)
        Signature Algorithm: ecdsa-with-SHA256
        Issuer: CN=sros2testCA
        Validity
            Not Before: Dec 14 13:51:34 2019 GMT
            Not After : Dec 11 13:51:34 2029 GMT
        Subject: CN=/sensor_msgs_image_tmp0
        Subject Public Key Info:
            Public Key Algorithm: id-ecPublicKey
                Public-Key: (256 bit)
                pub:
                    04:f3:40:12:ea:9e:2d:6d:83:3f:e6:62:41:c8:95:
                    a3:b7:02:09:a6:95:2d:b1:33:79:0e:e3:db:97:1e:
                    d4:2d:34:16:c0:02:1f:5e:0a:9a:d4:dd:c1:db:ed:
                    1d:73:62:d0:8f:dc:75:1c:d2:4f:72:80:9e:62:34:
                    c7:41:2a:9b:a7
                ASN1 OID: prime256v1
                NIST CURVE: P-256
        X509v3 extensions:
            X509v3 Basic Constraints: 
                CA:FALSE
    Signature Algorithm: ecdsa-with-SHA256
         30:45:02:20:62:9b:be:c0:9a:1b:3a:37:4c:58:0a:a5:45:ad:
         e7:49:6d:c5:11:3b:50:78:c6:a4:9e:3b:58:5f:2c:e4:7a:5b:
         02:21:00:c4:7a:d9:d4:b0:f5:dc:fd:e2:b7:be:fe:9d:ba:f4:
         7a:59:fe:25:84:a3:1f:4f:33:f6:cd:c9:3e:57:bc:ee:c5
-----BEGIN CERTIFICATE-----
MIIBNDCB26ADAgECAgIQZjAKBggqhkjOPQQDAjAWMRQwEgYDVQQDDAtzcm9zMnRl
c3RDQTAeFw0xOTEyMTQxMzUxMzRaFw0yOTEyMTExMzUxMzRaMCIxIDAeBgNVBAMM
Fy9zZW5zb3JfbXNnc19pbWFnZV90bXAwMFkwEwYHKoZIzj0CAQYIKoZIzj0DAQcD
QgAE80AS6p4tbYM/5mJByJWjtwIJppUtsTN5DuPblx7ULTQWwAIfXgqa1N3B2+0d
c2LQj9x1HNJPcoCeYjTHQSqbp6MNMAswCQYDVR0TBAIwADAKBggqhkjOPQQDAgNI
ADBFAiBim77Amhs6N0xYCqVFredJbcURO1B4xqSeO1hfLOR6WwIhAMR62dSw9dz9
4re+/p269HpZ/iWEox9PM/bNyT5XvO7F
-----END CERTIFICATE-----
