Certificate:
    Data:
        Version: 3 (0x2)
        Serial Number: 4199 (0x1067)
        Signature Algorithm: ecdsa-with-SHA256
        Issuer: CN=sros2testCA
        Validity
            Not Before: Dec 14 13:52:28 2019 GMT
            Not After : Dec 11 13:52:28 2029 GMT
        Subject: CN=/sensor_msgs_image_tmp0
        Subject Public Key Info:
            Public Key Algorithm: id-ecPublicKey
                Public-Key: (256 bit)
                pub:
                    04:54:75:6e:a9:4e:0e:be:5e:a0:02:41:0b:96:45:
                    75:68:df:08:fd:6b:54:9b:60:05:d4:a7:88:dc:d1:
                    89:21:c6:7e:12:93:f8:47:14:ee:47:bb:c6:62:b0:
                    8a:73:9a:88:77:88:07:24:bc:a6:07:ca:1a:27:0b:
                    bc:75:a8:a1:de
                ASN1 OID: prime256v1
                NIST CURVE: P-256
        X509v3 extensions:
            X509v3 Basic Constraints: 
                CA:FALSE
    Signature Algorithm: ecdsa-with-SHA256
         30:46:02:21:00:83:7b:da:6e:3c:45:f4:38:b2:78:05:f7:92:
         9f:8c:94:16:ff:67:ae:13:6a:68:c4:7f:bf:71:a8:de:bf:a5:
         5e:02:21:00:cc:0c:19:83:f9:80:b8:b0:17:65:6b:c2:7a:23:
         22:0c:06:2f:04:07:0d:29:fe:fd:3a:6f:cf:85:3f:be:c1:cb
-----BEGIN CERTIFICATE-----
MIIBNTCB26ADAgECAgIQZzAKBggqhkjOPQQDAjAWMRQwEgYDVQQDDAtzcm9zMnRl
c3RDQTAeFw0xOTEyMTQxMzUyMjhaFw0yOTEyMTExMzUyMjhaMCIxIDAeBgNVBAMM
Fy9zZW5zb3JfbXNnc19pbWFnZV90bXAwMFkwEwYHKoZIzj0CAQYIKoZIzj0DAQcD
QgAEVHVuqU4Ovl6gAkELlkV1aN8I/WtUm2AF1KeI3NGJIcZ+EpP4RxTuR7vGYrCK
c5qId4gHJLymB8oaJwu8daih3qMNMAswCQYDVR0TBAIwADAKBggqhkjOPQQDAgNJ
ADBGAiEAg3vabjxF9DiyeAX3kp+MlBb/Z64TamjEf79xqN6/pV4CIQDMDBmD+YC4
sBdla8J6IyIMBi8EBw0p/v06b8+FP77Byw==
-----END CERTIFICATE-----
