Certificate:
    Data:
        Version: 3 (0x2)
        Serial Number: 4200 (0x1068)
        Signature Algorithm: ecdsa-with-SHA256
        Issuer: CN=sros2testCA
        Validity
            Not Before: Dec 14 14:14:42 2019 GMT
            Not After : Dec 11 14:14:42 2029 GMT
        Subject: CN=/sensor_msgs_image_tmp0
        Subject Public Key Info:
            Public Key Algorithm: id-ecPublicKey
                Public-Key: (256 bit)
                pub:
                    04:0c:c7:2e:71:fc:16:c4:3c:90:42:75:73:cd:65:
                    b0:48:27:33:a0:44:b4:23:f6:ba:49:dc:8d:07:a7:
                    7e:3e:45:27:da:7f:ab:1a:b7:51:94:c3:24:3a:9f:
                    d9:c2:94:c4:1e:5c:fa:ff:81:63:fb:66:bc:21:34:
                    4c:0d:7d:69:df
                ASN1 OID: prime256v1
                NIST CURVE: P-256
        X509v3 extensions:
            X509v3 Basic Constraints: 
                CA:FALSE
    Signature Algorithm: ecdsa-with-SHA256
         30:45:02:20:1c:06:03:0d:81:a1:cc:ea:0d:10:aa:b4:10:1d:
         14:74:b8:ab:af:0d:c8:31:9b:fd:b2:77:87:2f:90:83:19:04:
         02:21:00:da:49:41:67:0c:47:79:5a:97:1a:14:73:5f:cf:8b:
         2d:1e:dd:91:77:00:21:68:f0:4b:69:00:5d:13:79:d7:19
-----BEGIN CERTIFICATE-----
MIIBNDCB26ADAgECAgIQaDAKBggqhkjOPQQDAjAWMRQwEgYDVQQDDAtzcm9zMnRl
c3RDQTAeFw0xOTEyMTQxNDE0NDJaFw0yOTEyMTExNDE0NDJaMCIxIDAeBgNVBAMM
Fy9zZW5zb3JfbXNnc19pbWFnZV90bXAwMFkwEwYHKoZIzj0CAQYIKoZIzj0DAQcD
QgAEDMcucfwWxDyQQnVzzWWwSCczoES0I/a6SdyNB6d+PkUn2n+rGrdRlMMkOp/Z
wpTEHlz6/4Fj+2a8ITRMDX1p36MNMAswCQYDVR0TBAIwADAKBggqhkjOPQQDAgNI
ADBFAiAcBgMNgaHM6g0QqrQQHRR0uKuvDcgxm/2yd4cvkIMZBAIhANpJQWcMR3la
lxoUc1/Piy0e3ZF3ACFo8EtpAF0TedcZ
-----END CERTIFICATE-----
