Certificate:
    Data:
        Version: 3 (0x2)
        Serial Number: 4201 (0x1069)
        Signature Algorithm: ecdsa-with-SHA256
        Issuer: CN=sros2testCA
        Validity
            Not Before: Dec 14 14:15:47 2019 GMT
            Not After : Dec 11 14:15:47 2029 GMT
        Subject: CN=/sensor_msgs_image_tmp0
        Subject Public Key Info:
            Public Key Algorithm: id-ecPublicKey
                Public-Key: (256 bit)
                pub:
                    04:a3:8a:1a:76:9e:44:d7:b5:86:92:c0:1a:7f:97:
                    32:b4:f6:b1:97:c9:71:ec:d1:88:5e:bc:4d:6f:88:
                    ad:89:d3:94:1d:4f:ed:8e:9a:75:b0:09:15:73:75:
                    d0:15:de:56:01:ed:ee:4d:81:cc:af:7c:df:76:ba:
                    e7:c8:8e:6a:85
                ASN1 OID: prime256v1
                NIST CURVE: P-256
        X509v3 extensions:
            X509v3 Basic Constraints: 
                CA:FALSE
    Signature Algorithm: ecdsa-with-SHA256
         30:44:02:20:0c:af:b3:ac:f8:c9:0f:e6:55:8b:e9:c6:f3:0e:
         35:b5:a0:41:fe:8a:74:f1:9d:0b:9f:2d:90:c5:1c:20:72:9e:
         02:20:46:a5:07:f3:3b:3d:f4:24:c4:cb:cc:9d:64:26:d4:37:
         07:31:4d:ec:cf:e3:3f:38:51:f5:23:1a:c5:2b:4e:75
-----BEGIN CERTIFICATE-----
MIIBMzCB26ADAgECAgIQaTAKBggqhkjOPQQDAjAWMRQwEgYDVQQDDAtzcm9zMnRl
c3RDQTAeFw0xOTEyMTQxNDE1NDdaFw0yOTEyMTExNDE1NDdaMCIxIDAeBgNVBAMM
Fy9zZW5zb3JfbXNnc19pbWFnZV90bXAwMFkwEwYHKoZIzj0CAQYIKoZIzj0DAQcD
QgAEo4oadp5E17WGksAaf5cytPaxl8lx7NGIXrxNb4itidOUHU/tjpp1sAkVc3XQ
Fd5WAe3uTYHMr3zfdrrnyI5qhaMNMAswCQYDVR0TBAIwADAKBggqhkjOPQQDAgNH
ADBEAiAMr7Os+MkP5lWL6cbzDjW1oEH+inTxnQufLZDFHCByngIgRqUH8zs99CTE
y8ydZCbUNwcxTezP4z84UfUjGsUrTnU=
-----END CERTIFICATE-----
