Certificate:
    Data:
        Version: 3 (0x2)
        Serial Number: 4202 (0x106a)
        Signature Algorithm: ecdsa-with-SHA256
        Issuer: CN=sros2testCA
        Validity
            Not Before: Dec 14 14:53:59 2019 GMT
            Not After : Dec 11 14:53:59 2029 GMT
        Subject: CN=/sensor_msgs_image_tmp0
        Subject Public Key Info:
            Public Key Algorithm: id-ecPublicKey
                Public-Key: (256 bit)
                pub:
                    04:b1:e6:13:8c:8f:bc:d9:d5:64:b7:d4:a6:0e:81:
                    ca:55:f4:ec:20:b1:d4:dd:2a:33:a1:f7:42:8c:22:
                    e5:81:66:2d:96:2b:0b:86:07:9b:59:85:04:c7:15:
                    ac:02:9d:84:4c:32:30:11:d2:2c:85:aa:97:91:b6:
                    bd:a8:64:f5:ea
                ASN1 OID: prime256v1
                NIST CURVE: P-256
        X509v3 extensions:
            X509v3 Basic Constraints: 
                CA:FALSE
    Signature Algorithm: ecdsa-with-SHA256
         30:43:02:1f:39:30:5e:24:d5:73:30:7a:cf:84:74:ab:9a:21:
         c6:9c:9e:7e:3c:bf:6c:ba:63:ea:48:1c:b9:ce:8d:af:d2:02:
         20:5d:66:0f:f8:26:6b:7a:9e:31:91:92:80:ef:00:1a:26:0f:
         ef:b8:3a:08:5a:f1:0c:ed:38:d3:51:8d:26:9b:8b
-----BEGIN CERTIFICATE-----
MIIBMjCB26ADAgECAgIQajAKBggqhkjOPQQDAjAWMRQwEgYDVQQDDAtzcm9zMnRl
c3RDQTAeFw0xOTEyMTQxNDUzNTlaFw0yOTEyMTExNDUzNTlaMCIxIDAeBgNVBAMM
Fy9zZW5zb3JfbXNnc19pbWFnZV90bXAwMFkwEwYHKoZIzj0CAQYIKoZIzj0DAQcD
QgAEseYTjI+82dVkt9SmDoHKVfTsILHU3SozofdCjCLlgWYtlisLhgebWYUExxWs
Ap2ETDIwEdIshaqXkba9qGT16qMNMAswCQYDVR0TBAIwADAKBggqhkjOPQQDAgNG
ADBDAh85MF4k1XMwes+EdKuaIcacnn48v2y6Y+pIHLnOja/SAiBdZg/4Jmt6njGR
koDvABomD++4Ogha8QztONNRjSabiw==
-----END CERTIFICATE-----
