Certificate:
    Data:
        Version: 3 (0x2)
        Serial Number: 4203 (0x106b)
        Signature Algorithm: ecdsa-with-SHA256
        Issuer: CN=sros2testCA
        Validity
            Not Before: Dec 14 14:54:42 2019 GMT
            Not After : Dec 11 14:54:42 2029 GMT
        Subject: CN=/sensor_msgs_image_tmp0
        Subject Public Key Info:
            Public Key Algorithm: id-ecPublicKey
                Public-Key: (256 bit)
                pub:
                    04:64:c3:4d:cc:09:06:dd:f5:56:ec:8d:1b:e4:e0:
                    ed:bb:67:f4:85:bd:56:37:69:bf:ad:b9:3e:0f:c5:
                    6d:b0:a2:ab:1b:d1:4b:34:75:c5:b2:72:eb:79:15:
                    be:79:5c:dd:c1:b5:ea:88:f7:ad:ef:27:ae:53:b5:
                    90:13:bb:3b:5c
                ASN1 OID: prime256v1
                NIST CURVE: P-256
        X509v3 extensions:
            X509v3 Basic Constraints: 
                CA:FALSE
    Signature Algorithm: ecdsa-with-SHA256
         30:45:02:20:11:c8:40:5c:a1:b6:30:9e:1c:90:87:6c:b1:6c:
         3f:5d:44:ee:80:46:a0:ca:e4:98:ea:d7:10:8c:71:09:78:33:
         02:21:00:a4:d8:64:ac:7c:a9:43:21:a6:c1:38:f4:b0:32:eb:
         97:7a:87:f1:4f:51:35:0b:84:64:6a:cb:f3:b9:8a:01:7d
-----BEGIN CERTIFICATE-----
MIIBNDCB26ADAgECAgIQazAKBggqhkjOPQQDAjAWMRQwEgYDVQQDDAtzcm9zMnRl
c3RDQTAeFw0xOTEyMTQxNDU0NDJaFw0yOTEyMTExNDU0NDJaMCIxIDAeBgNVBAMM
Fy9zZW5zb3JfbXNnc19pbWFnZV90bXAwMFkwEwYHKoZIzj0CAQYIKoZIzj0DAQcD
QgAEZMNNzAkG3fVW7I0b5ODtu2f0hb1WN2m/rbk+D8VtsKKrG9FLNHXFsnLreRW+
eVzdwbXqiPet7yeuU7WQE7s7XKMNMAswCQYDVR0TBAIwADAKBggqhkjOPQQDAgNI
ADBFAiARyEBcobYwnhyQh2yxbD9dRO6ARqDK5Jjq1xCMcQl4MwIhAKTYZKx8qUMh
psE49LAy65d6h/FPUTULhGRqy/O5igF9
-----END CERTIFICATE-----
