Certificate:
    Data:
        Version: 3 (0x2)
        Serial Number: 4204 (0x106c)
        Signature Algorithm: ecdsa-with-SHA256
        Issuer: CN=sros2testCA
        Validity
            Not Before: Dec 16 04:15:31 2019 GMT
            Not After : Dec 13 04:15:31 2029 GMT
        Subject: CN=/sensor_msgs_image_tmp0
        Subject Public Key Info:
            Public Key Algorithm: id-ecPublicKey
                Public-Key: (256 bit)
                pub:
                    04:5c:8d:55:cc:0f:5a:54:92:d2:de:04:a7:21:79:
                    3b:94:55:91:08:c4:db:9e:c0:f8:72:06:e7:e3:5a:
                    85:18:c1:f8:17:22:ea:c8:13:24:f6:71:b2:63:c4:
                    9a:5c:93:47:50:65:f0:17:12:af:d5:80:b6:99:3d:
                    b5:40:33:ac:27
                ASN1 OID: prime256v1
                NIST CURVE: P-256
        X509v3 extensions:
            X509v3 Basic Constraints: 
                CA:FALSE
    Signature Algorithm: ecdsa-with-SHA256
         30:45:02:20:31:5b:bc:6c:30:ac:f1:7d:ef:55:29:7e:06:8c:
         fa:b3:06:d8:b5:55:9f:e2:b4:7b:7c:0f:c7:dd:1e:11:c9:16:
         02:21:00:d5:9f:6a:d1:ae:fa:90:6d:ff:3b:9b:5f:7a:6d:70:
         ad:2c:7a:b4:9f:94:42:8c:9a:29:2e:d6:0a:12:54:03:9d
-----BEGIN CERTIFICATE-----
MIIBNDCB26ADAgECAgIQbDAKBggqhkjOPQQDAjAWMRQwEgYDVQQDDAtzcm9zMnRl
c3RDQTAeFw0xOTEyMTYwNDE1MzFaFw0yOTEyMTMwNDE1MzFaMCIxIDAeBgNVBAMM
Fy9zZW5zb3JfbXNnc19pbWFnZV90bXAwMFkwEwYHKoZIzj0CAQYIKoZIzj0DAQcD
QgAEXI1VzA9aVJLS3gSnIXk7lFWRCMTbnsD4cgbn41qFGMH4FyLqyBMk9nGyY8Sa
XJNHUGXwFxKv1YC2mT21QDOsJ6MNMAswCQYDVR0TBAIwADAKBggqhkjOPQQDAgNI
ADBFAiAxW7xsMKzxfe9VKX4GjPqzBti1VZ/itHt8D8fdHhHJFgIhANWfatGu+pBt
/zubX3ptcK0serSflEKMmiku1goSVAOd
-----END CERTIFICATE-----
