Certificate:
    Data:
        Version: 3 (0x2)
        Serial Number: 4205 (0x106d)
        Signature Algorithm: ecdsa-with-SHA256
        Issuer: CN=sros2testCA
        Validity
            Not Before: Dec 16 04:16:11 2019 GMT
            Not After : Dec 13 04:16:11 2029 GMT
        Subject: CN=/sensor_msgs_image_tmp0
        Subject Public Key Info:
            Public Key Algorithm: id-ecPublicKey
                Public-Key: (256 bit)
                pub:
                    04:e1:c2:9a:be:de:71:c7:0b:ad:68:d5:f6:4d:60:
                    d6:fa:88:ca:ca:94:61:9d:10:1a:cc:d2:9d:d3:9d:
                    56:08:d8:43:7a:ab:8e:40:51:7b:41:91:30:8d:a1:
                    19:b3:45:33:6d:18:ed:34:58:f3:b2:69:51:ff:93:
                    d7:09:80:fb:88
                ASN1 OID: prime256v1
                NIST CURVE: P-256
        X509v3 extensions:
            X509v3 Basic Constraints: 
                CA:FALSE
    Signature Algorithm: ecdsa-with-SHA256
         30:46:02:21:00:e9:99:ed:8c:15:26:0a:a3:6d:9e:15:03:20:
         65:ad:64:69:a5:63:cd:30:63:5c:70:94:27:70:a3:35:9f:d5:
         2d:02:21:00:ae:96:aa:e3:91:0d:a2:ce:28:67:5f:f3:69:71:
         ef:33:2c:8d:06:9f:13:58:53:71:26:9a:a6:8b:2e:0b:3c:76
-----BEGIN CERTIFICATE-----
MIIBNTCB26ADAgECAgIQbTAKBggqhkjOPQQDAjAWMRQwEgYDVQQDDAtzcm9zMnRl
c3RDQTAeFw0xOTEyMTYwNDE2MTFaFw0yOTEyMTMwNDE2MTFaMCIxIDAeBgNVBAMM
Fy9zZW5zb3JfbXNnc19pbWFnZV90bXAwMFkwEwYHKoZIzj0CAQYIKoZIzj0DAQcD
QgAE4cKavt5xxwutaNX2TWDW+ojKypRhnRAazNKd051WCNhDequOQFF7QZEwjaEZ
s0UzbRjtNFjzsmlR/5PXCYD7iKMNMAswCQYDVR0TBAIwADAKBggqhkjOPQQDAgNJ
ADBGAiEA6ZntjBUmCqNtnhUDIGWtZGmlY80wY1xwlCdwozWf1S0CIQCulqrjkQ2i
zihnX/Npce8zLI0GnxNYU3EmmqaLLgs8dg==
-----END CERTIFICATE-----
