Certificate:
    Data:
        Version: 3 (0x2)
        Serial Number: 4206 (0x106e)
        Signature Algorithm: ecdsa-with-SHA256
        Issuer: CN=sros2testCA
        Validity
            Not Before: Jan  3 11:43:53 2020 GMT
            Not After : Dec 31 11:43:53 2029 GMT
        Subject: CN=/performance_test1804289383
        Subject Public Key Info:
            Public Key Algorithm: id-ecPublicKey
                Public-Key: (256 bit)
                pub:
                    04:18:a1:23:ce:f1:8b:04:83:ac:2e:07:64:bb:14:
                    96:b0:5b:b0:62:33:87:ff:7b:fb:e7:19:ea:f9:2b:
                    0c:68:f5:0e:33:14:ef:07:26:2b:82:b0:31:c3:67:
                    7e:63:42:75:68:ac:a2:38:8b:99:f8:62:9c:e6:4e:
                    b1:ea:81:3d:f0
                ASN1 OID: prime256v1
                NIST CURVE: P-256
        X509v3 extensions:
            X509v3 Basic Constraints: 
                CA:FALSE
    Signature Algorithm: ecdsa-with-SHA256
         30:46:02:21:00:d4:d1:f6:ef:41:61:8f:5a:a8:4d:62:f7:a3:
         48:05:4c:df:e1:03:af:96:a5:52:ec:b3:f1:f0:ab:52:16:9c:
         37:02:21:00:ac:bf:7d:0e:5b:ea:81:73:3a:22:f5:bd:7a:a4:
         40:63:f5:4e:6e:dc:cc:45:a4:68:2f:4a:27:a9:d2:da:63:f8
-----BEGIN CERTIFICATE-----
MIIBOTCB36ADAgECAgIQbjAKBggqhkjOPQQDAjAWMRQwEgYDVQQDDAtzcm9zMnRl
c3RDQTAeFw0yMDAxMDMxMTQzNTNaFw0yOTEyMzExMTQzNTNaMCYxJDAiBgNVBAMM
Gy9wZXJmb3JtYW5jZV90ZXN0MTgwNDI4OTM4MzBZMBMGByqGSM49AgEGCCqGSM49
AwEHA0IABBihI87xiwSDrC4HZLsUlrBbsGIzh/97++cZ6vkrDGj1DjMU7wcmK4Kw
McNnfmNCdWisojiLmfhinOZOseqBPfCjDTALMAkGA1UdEwQCMAAwCgYIKoZIzj0E
AwIDSQAwRgIhANTR9u9BYY9aqE1i96NIBUzf4QOvlqVS7LPx8KtSFpw3AiEArL99
DlvqgXM6IvW9eqRAY/VObtzMRaRoL0onqdLaY/g=
-----END CERTIFICATE-----
