Certificate:
    Data:
        Version: 3 (0x2)
        Serial Number: 4207 (0x106f)
        Signature Algorithm: ecdsa-with-SHA256
        Issuer: CN=sros2testCA
        Validity
            Not Before: Jan  3 11:45:02 2020 GMT
            Not After : Dec 31 11:45:02 2029 GMT
        Subject: CN=/performance_test846930886
        Subject Public Key Info:
            Public Key Algorithm: id-ecPublicKey
                Public-Key: (256 bit)
                pub:
                    04:93:82:ac:58:7d:37:2f:15:7f:65:0d:19:6c:da:
                    31:a4:d1:07:ef:50:65:fe:06:bc:e9:46:19:f1:b4:
                    9b:4e:94:50:d5:f2:0b:12:40:e5:db:58:f1:d6:55:
                    1d:27:04:b4:85:fa:57:7d:5a:b0:9f:29:a5:bc:d4:
                    78:68:7d:ea:d8
                ASN1 OID: prime256v1
                NIST CURVE: P-256
        X509v3 extensions:
            X509v3 Basic Constraints: 
                CA:FALSE
    Signature Algorithm: ecdsa-with-SHA256
         30:46:02:21:00:e9:68:e1:2f:91:18:de:5c:63:21:85:5b:08:
         e3:a3:52:82:17:38:33:40:16:fc:00:18:54:b9:ef:4c:3b:32:
         fb:02:21:00:c0:e8:bd:be:3d:66:b7:96:8d:07:17:26:4d:a3:
         37:24:30:73:3f:0c:b4:5c:e5:5c:a5:9e:4e:3e:61:dc:57:a9
-----BEGIN CERTIFICATE-----
MIIBODCB3qADAgECAgIQbzAKBggqhkjOPQQDAjAWMRQwEgYDVQQDDAtzcm9zMnRl
c3RDQTAeFw0yMDAxMDMxMTQ1MDJaFw0yOTEyMzExMTQ1MDJaMCUxIzAhBgNVBAMM
Gi9wZXJmb3JtYW5jZV90ZXN0ODQ2OTMwODg2MFkwEwYHKoZIzj0CAQYIKoZIzj0D
AQcDQgAEk4KsWH03LxV/ZQ0ZbNoxpNEH71Bl/ga86UYZ8bSbTpRQ1fILEkDl21jx
1lUdJwS0hfpXfVqwnymlvNR4aH3q2KMNMAswCQYDVR0TBAIwADAKBggqhkjOPQQD
AgNJADBGAiEA6WjhL5EY3lxjIYVbCOOjUoIXODNAFvwAGFS570w7MvsCIQDA6L2+
PWa3lo0HFyZNozckMHM/DLRc5Vylnk4+YdxXqQ==
-----END CERTIFICATE-----
