Certificate:
    Data:
        Version: 3 (0x2)
        Serial Number: 4208 (0x1070)
        Signature Algorithm: ecdsa-with-SHA256
        Issuer: CN=sros2testCA
        Validity
            Not Before: Jan  6 04:07:52 2020 GMT
            Not After : Jan  3 04:07:52 2030 GMT
        Subject: CN=/performance_test0
        Subject Public Key Info:
            Public Key Algorithm: id-ecPublicKey
                Public-Key: (256 bit)
                pub:
                    04:99:26:47:9a:5d:bb:2d:fe:67:c6:aa:20:21:65:
                    a0:d7:2c:6b:9f:1d:fd:cc:5d:3e:26:19:b5:84:5c:
                    a9:d8:83:f0:94:38:25:17:81:fc:5c:b6:3a:51:c7:
                    fb:e1:4b:2a:3d:04:4f:f6:fc:e0:f6:f7:a2:b6:a6:
                    6f:12:f9:79:97
                ASN1 OID: prime256v1
                NIST CURVE: P-256
        X509v3 extensions:
            X509v3 Basic Constraints: 
                CA:FALSE
    Signature Algorithm: ecdsa-with-SHA256
         30:45:02:21:00:d3:7a:0d:40:ac:58:7b:13:ae:d2:b9:4e:2f:
         1a:51:69:3f:17:76:8a:cd:7c:07:7c:cb:63:2e:43:ef:c2:50:
         eb:02:20:0e:e9:7d:8f:29:13:fd:2b:7c:b7:f8:da:7c:f4:f8:
         b8:84:49:0c:d0:6c:e2:dc:52:99:12:ce:f6:35:b0:2d:3c
-----BEGIN CERTIFICATE-----
MIIBLzCB1qADAgECAgIQcDAKBggqhkjOPQQDAjAWMRQwEgYDVQQDDAtzcm9zMnRl
c3RDQTAeFw0yMDAxMDYwNDA3NTJaFw0zMDAxMDMwNDA3NTJaMB0xGzAZBgNVBAMM
Ei9wZXJmb3JtYW5jZV90ZXN0MDBZMBMGByqGSM49AgEGCCqGSM49AwEHA0IABJkm
R5pduy3+Z8aqICFloNcsa58d/cxdPiYZtYRcqdiD8JQ4JReB/Fy2OlHH++FLKj0E
T/b84Pb3orambxL5eZejDTALMAkGA1UdEwQCMAAwCgYIKoZIzj0EAwIDSAAwRQIh
ANN6DUCsWHsTrtK5Ti8aUWk/F3aKzXwHfMtjLkPvwlDrAiAO6X2PKRP9K3y3+Np8
9Pi4hEkM0Gzi3FKZEs72NbAtPA==
-----END CERTIFICATE-----
