Certificate:
    Data:
        Version: 3 (0x2)
        Serial Number: 4209 (0x1071)
        Signature Algorithm: ecdsa-with-SHA256
        Issuer: CN=sros2testCA
        Validity
            Not Before: Jan  6 04:07:56 2020 GMT
            Not After : Jan  3 04:07:56 2030 GMT
        Subject: CN=/performance_test1
        Subject Public Key Info:
            Public Key Algorithm: id-ecPublicKey
                Public-Key: (256 bit)
                pub:
                    04:c8:f6:58:8e:06:a4:98:d5:e7:c3:1b:fb:0e:5d:
                    90:56:1b:ca:8c:f7:21:fb:82:74:71:1d:a6:74:56:
                    92:78:b8:a9:b1:53:da:c6:f4:63:82:b5:55:7e:1c:
                    19:7a:ec:b0:68:6c:45:c4:90:3f:56:15:ce:5f:6b:
                    e0:ed:dc:13:da
                ASN1 OID: prime256v1
                NIST CURVE: P-256
        X509v3 extensions:
            X509v3 Basic Constraints: 
                CA:FALSE
    Signature Algorithm: ecdsa-with-SHA256
         30:45:02:21:00:b1:88:7d:68:8c:67:21:fe:3e:e6:ff:69:c2:
         38:58:ed:cd:3a:04:72:f0:52:5c:44:4a:ad:af:d9:6f:c4:c9:
         3f:02:20:26:80:7b:ab:c8:be:13:71:7a:4e:f3:e8:84:19:8f:
         6b:38:94:0e:ac:e4:f7:69:4a:84:29:bc:fc:eb:71:f4:b0
-----BEGIN CERTIFICATE-----
MIIBLzCB1qADAgECAgIQcTAKBggqhkjOPQQDAjAWMRQwEgYDVQQDDAtzcm9zMnRl
c3RDQTAeFw0yMDAxMDYwNDA3NTZaFw0zMDAxMDMwNDA3NTZaMB0xGzAZBgNVBAMM
Ei9wZXJmb3JtYW5jZV90ZXN0MTBZMBMGByqGSM49AgEGCCqGSM49AwEHA0IABMj2
WI4GpJjV58Mb+w5dkFYbyoz3IfuCdHEdpnRWkni4qbFT2sb0Y4K1VX4cGXrssGhs
RcSQP1YVzl9r4O3cE9qjDTALMAkGA1UdEwQCMAAwCgYIKoZIzj0EAwIDSAAwRQIh
ALGIfWiMZyH+Pub/acI4WO3NOgRy8FJcREqtr9lvxMk/AiAmgHuryL4TcXpO8+iE
GY9rOJQOrOT3aUqEKbz863H0sA==
-----END CERTIFICATE-----
