Certificate:
    Data:
        Version: 3 (0x2)
        Serial Number: 4210 (0x1072)
        Signature Algorithm: ecdsa-with-SHA256
        Issuer: CN=sros2testCA
        Validity
            Not Before: Jan  6 04:08:00 2020 GMT
            Not After : Jan  3 04:08:00 2030 GMT
        Subject: CN=/performance_test2
        Subject Public Key Info:
            Public Key Algorithm: id-ecPublicKey
                Public-Key: (256 bit)
                pub:
                    04:6b:9f:e7:09:7b:1e:a0:a5:62:3f:c0:f2:88:2c:
                    b0:26:d2:15:79:bd:99:da:6e:6c:06:d2:c0:95:66:
                    98:f1:fe:47:8e:59:c4:e2:7c:ec:b1:c9:13:de:60:
                    42:67:07:d8:d3:84:b9:59:85:cf:13:1e:0b:41:2e:
                    53:28:ea:8f:32
                ASN1 OID: prime256v1
                NIST CURVE: P-256
        X509v3 extensions:
            X509v3 Basic Constraints: 
                CA:FALSE
    Signature Algorithm: ecdsa-with-SHA256
         30:46:02:21:00:ee:03:57:e0:f5:60:f9:a4:70:f6:cc:93:d8:
         7e:b0:09:12:49:f4:8f:30:d1:ce:fc:30:a5:6e:5f:5f:8b:61:
         cc:02:21:00:a0:fd:84:7c:f8:b0:bc:e9:c3:9a:be:44:4e:3f:
         51:7f:00:ce:83:68:4c:1f:19:f8:61:b4:c5:62:dc:e5:12:15
-----BEGIN CERTIFICATE-----
MIIBMDCB1qADAgECAgIQcjAKBggqhkjOPQQDAjAWMRQwEgYDVQQDDAtzcm9zMnRl
c3RDQTAeFw0yMDAxMDYwNDA4MDBaFw0zMDAxMDMwNDA4MDBaMB0xGzAZBgNVBAMM
Ei9wZXJmb3JtYW5jZV90ZXN0MjBZMBMGByqGSM49AgEGCCqGSM49AwEHA0IABGuf
5wl7HqClYj/A8ogssCbSFXm9mdpubAbSwJVmmPH+R45ZxOJ87LHJE95gQmcH2NOE
uVmFzxMeC0EuUyjqjzKjDTALMAkGA1UdEwQCMAAwCgYIKoZIzj0EAwIDSQAwRgIh
AO4DV+D1YPmkcPbMk9h+sAkSSfSPMNHO/DClbl9fi2HMAiEAoP2EfPiwvOnDmr5E
Tj9RfwDOg2hMHxn4YbTFYtzlEhU=
-----END CERTIFICATE-----
