Certificate:
    Data:
        Version: 3 (0x2)
        Serial Number: 4211 (0x1073)
        Signature Algorithm: ecdsa-with-SHA256
        Issuer: CN=sros2testCA
        Validity
            Not Before: Jan  6 04:08:03 2020 GMT
            Not After : Jan  3 04:08:03 2030 GMT
        Subject: CN=/performance_test3
        Subject Public Key Info:
            Public Key Algorithm: id-ecPublicKey
                Public-Key: (256 bit)
                pub:
                    04:e8:cc:f9:39:57:c2:fa:b0:8a:2e:93:92:45:93:
                    2c:8a:16:4c:82:01:35:a7:80:01:3b:72:b9:13:37:
                    7d:a0:b6:5a:4b:9f:0f:61:9e:b7:49:85:c6:5c:2a:
                    8f:08:0a:9b:cb:f7:43:d1:97:f2:8b:eb:84:a8:b1:
                    8e:8a:c0:98:7c
                ASN1 OID: prime256v1
                NIST CURVE: P-256
        X509v3 extensions:
            X509v3 Basic Constraints: 
                CA:FALSE
    Signature Algorithm: ecdsa-with-SHA256
         30:45:02:21:00:a9:63:9e:7e:dd:c6:11:f4:d1:aa:dd:f4:c1:
         bc:57:73:87:9e:b2:09:81:20:0b:2e:db:2e:13:25:15:72:d7:
         ba:02:20:43:7b:c9:d9:a0:b4:27:1c:ff:6c:3a:46:93:1f:59:
         c5:0c:b3:dc:d6:3a:62:a2:ec:a0:28:6c:d7:fe:21:a7:0d
-----BEGIN CERTIFICATE-----
MIIBLzCB1qADAgECAgIQczAKBggqhkjOPQQDAjAWMRQwEgYDVQQDDAtzcm9zMnRl
c3RDQTAeFw0yMDAxMDYwNDA4MDNaFw0zMDAxMDMwNDA4MDNaMB0xGzAZBgNVBAMM
Ei9wZXJmb3JtYW5jZV90ZXN0MzBZMBMGByqGSM49AgEGCCqGSM49AwEHA0IABOjM
+TlXwvqwii6TkkWTLIoWTIIBNaeAATtyuRM3faC2WkufD2Get0mFxlwqjwgKm8v3
Q9GX8ovrhKixjorAmHyjDTALMAkGA1UdEwQCMAAwCgYIKoZIzj0EAwIDSAAwRQIh
AKljnn7dxhH00ard9MG8V3OHnrIJgSALLtsuEyUVcte6AiBDe8nZoLQnHP9sOkaT
H1nFDLPc1jpiouygKGzX/iGnDQ==
-----END CERTIFICATE-----
