Certificate:
    Data:
        Version: 3 (0x2)
        Serial Number: 4212 (0x1074)
        Signature Algorithm: ecdsa-with-SHA256
        Issuer: CN=sros2testCA
        Validity
            Not Before: Jan  6 04:08:08 2020 GMT
            Not After : Jan  3 04:08:08 2030 GMT
        Subject: CN=/performance_test4
        Subject Public Key Info:
            Public Key Algorithm: id-ecPublicKey
                Public-Key: (256 bit)
                pub:
                    04:9b:dc:f8:22:a5:a9:0c:48:f0:64:df:03:f6:0b:
                    f0:50:52:15:e5:03:15:c4:4b:17:27:ca:ca:ec:7b:
                    d6:75:a9:0f:bb:3d:9e:9d:da:2f:54:ed:d4:5b:4e:
                    14:c5:f3:10:67:fe:02:2d:3c:64:76:7d:d1:7a:ca:
                    30:3b:92:1a:82
                ASN1 OID: prime256v1
                NIST CURVE: P-256
        X509v3 extensions:
            X509v3 Basic Constraints: 
                CA:FALSE
    Signature Algorithm: ecdsa-with-SHA256
         30:46:02:21:00:a7:ee:69:6d:06:88:36:f2:98:6e:a5:f8:df:
         64:38:d1:d5:64:ba:07:35:c4:d7:2c:02:5c:e9:32:b8:ff:6c:
         6c:02:21:00:c1:1b:5c:10:bd:c0:0a:dd:bd:e1:65:a3:96:a8:
         52:1e:40:65:e8:90:bd:e6:ef:1d:6a:3e:9f:7a:50:55:08:70
-----BEGIN CERTIFICATE-----
MIIBMDCB1qADAgECAgIQdDAKBggqhkjOPQQDAjAWMRQwEgYDVQQDDAtzcm9zMnRl
c3RDQTAeFw0yMDAxMDYwNDA4MDhaFw0zMDAxMDMwNDA4MDhaMB0xGzAZBgNVBAMM
Ei9wZXJmb3JtYW5jZV90ZXN0NDBZMBMGByqGSM49AgEGCCqGSM49AwEHA0IABJvc
+CKlqQxI8GTfA/YL8FBSFeUDFcRLFyfKyux71nWpD7s9np3aL1Tt1FtOFMXzEGf+
Ai08ZHZ90XrKMDuSGoKjDTALMAkGA1UdEwQCMAAwCgYIKoZIzj0EAwIDSQAwRgIh
AKfuaW0GiDbymG6l+N9kONHVZLoHNcTXLAJc6TK4/2xsAiEAwRtcEL3ACt294WWj
lqhSHkBl6JC95u8daj6felBVCHA=
-----END CERTIFICATE-----
