Certificate:
    Data:
        Version: 3 (0x2)
        Serial Number: 4213 (0x1075)
        Signature Algorithm: ecdsa-with-SHA256
        Issuer: CN=sros2testCA
        Validity
            Not Before: Jan  6 04:08:12 2020 GMT
            Not After : Jan  3 04:08:12 2030 GMT
        Subject: CN=/performance_test5
        Subject Public Key Info:
            Public Key Algorithm: id-ecPublicKey
                Public-Key: (256 bit)
                pub:
                    04:71:e0:1f:ab:6b:1f:b4:51:d0:0c:15:46:03:3c:
                    e6:8a:dc:d3:cb:53:4e:d0:e6:3f:ea:46:9c:d4:e8:
                    a7:f8:d7:d9:8f:b5:89:a0:36:ca:9c:46:ce:35:6a:
                    17:12:01:f7:31:0f:8e:09:46:fd:70:ea:f7:f0:4c:
                    76:a6:34:73:80
                ASN1 OID: prime256v1
                NIST CURVE: P-256
        X509v3 extensions:
            X509v3 Basic Constraints: 
                CA:FALSE
    Signature Algorithm: ecdsa-with-SHA256
         30:46:02:21:00:f3:88:67:97:ef:68:39:e7:98:01:ae:c0:9d:
         95:87:2f:4e:d4:6b:bc:be:24:1f:78:6f:39:89:df:a6:b2:fa:
         e3:02:21:00:8a:76:b9:33:d4:ab:4b:25:26:a1:30:1a:7c:6f:
         89:c6:e6:e7:14:58:0f:bf:06:97:ce:e6:17:0d:b3:c1:f5:4e
-----BEGIN CERTIFICATE-----
MIIBMDCB1qADAgECAgIQdTAKBggqhkjOPQQDAjAWMRQwEgYDVQQDDAtzcm9zMnRl
c3RDQTAeFw0yMDAxMDYwNDA4MTJaFw0zMDAxMDMwNDA4MTJaMB0xGzAZBgNVBAMM
Ei9wZXJmb3JtYW5jZV90ZXN0NTBZMBMGByqGSM49AgEGCCqGSM49AwEHA0IABHHg
H6trH7RR0AwVRgM85orc08tTTtDmP+pGnNTop/jX2Y+1iaA2ypxGzjVqFxIB9zEP
jglG/XDq9/BMdqY0c4CjDTALMAkGA1UdEwQCMAAwCgYIKoZIzj0EAwIDSQAwRgIh
APOIZ5fvaDnnmAGuwJ2Vhy9O1Gu8viQfeG85id+msvrjAiEAina5M9SrSyUmoTAa
fG+JxubnFFgPvwaXzuYXDbPB9U4=
-----END CERTIFICATE-----
