Certificate:
    Data:
        Version: 3 (0x2)
        Serial Number: 4214 (0x1076)
        Signature Algorithm: ecdsa-with-SHA256
        Issuer: CN=sros2testCA
        Validity
            Not Before: Jan  6 05:19:20 2020 GMT
            Not After : Jan  3 05:19:20 2030 GMT
        Subject: CN=/performance_test1804289383
        Subject Public Key Info:
            Public Key Algorithm: id-ecPublicKey
                Public-Key: (256 bit)
                pub:
                    04:d9:99:17:ec:9c:cc:ae:4c:58:fd:3c:68:cb:0e:
                    5a:a2:8b:b6:f0:60:c5:6f:94:54:06:2b:fb:59:8e:
                    6a:a6:f4:58:85:59:8c:67:5f:87:30:04:f3:68:05:
                    01:2c:fe:4d:96:7e:40:9b:e4:5b:0e:ab:dd:29:96:
                    69:e1:81:d0:0a
                ASN1 OID: prime256v1
                NIST CURVE: P-256
        X509v3 extensions:
            X509v3 Basic Constraints: 
                CA:FALSE
    Signature Algorithm: ecdsa-with-SHA256
         30:46:02:21:00:a5:29:71:0d:08:37:e0:7d:79:7d:10:09:b3:
         37:61:fc:1c:d7:8a:87:d9:57:0c:29:65:f0:3d:76:d7:da:8f:
         b7:02:21:00:a7:ae:82:bc:a8:85:23:dd:d9:b7:40:a1:cc:19:
         89:a5:db:42:f2:20:b3:a1:ab:5b:c4:0b:79:f3:b7:54:bf:7a
-----BEGIN CERTIFICATE-----
MIIBOTCB36ADAgECAgIQdjAKBggqhkjOPQQDAjAWMRQwEgYDVQQDDAtzcm9zMnRl
c3RDQTAeFw0yMDAxMDYwNTE5MjBaFw0zMDAxMDMwNTE5MjBaMCYxJDAiBgNVBAMM
Gy9wZXJmb3JtYW5jZV90ZXN0MTgwNDI4OTM4MzBZMBMGByqGSM49AgEGCCqGSM49
AwEHA0IABNmZF+yczK5MWP08aMsOWqKLtvBgxW+UVAYr+1mOaqb0WIVZjGdfhzAE
82gFASz+TZZ+QJvkWw6r3SmWaeGB0AqjDTALMAkGA1UdEwQCMAAwCgYIKoZIzj0E
AwIDSQAwRgIhAKUpcQ0IN+B9eX0QCbM3Yfwc14qH2VcMKWXwPXbX2o+3AiEAp66C
vKiFI93Zt0ChzBmJpdtC8iCzoatbxAt587dUv3o=
-----END CERTIFICATE-----
