Certificate:
    Data:
        Version: 3 (0x2)
        Serial Number: 4215 (0x1077)
        Signature Algorithm: ecdsa-with-SHA256
        Issuer: CN=sros2testCA
        Validity
            Not Before: Jan  6 05:20:02 2020 GMT
            Not After : Jan  3 05:20:02 2030 GMT
        Subject: CN=/performance_test846930886
        Subject Public Key Info:
            Public Key Algorithm: id-ecPublicKey
                Public-Key: (256 bit)
                pub:
                    04:7e:1c:ca:70:eb:b2:ab:75:ae:04:02:78:c7:8c:
                    b8:cc:7d:27:5c:28:34:1b:0e:86:8f:c8:e3:20:80:
                    5e:d9:0f:74:d9:b6:d8:fb:8a:66:e0:ef:41:0c:78:
                    cd:db:0b:09:97:0f:91:0d:9d:7c:9c:00:dc:43:a9:
                    18:ef:a6:f4:90
                ASN1 OID: prime256v1
                NIST CURVE: P-256
        X509v3 extensions:
            X509v3 Basic Constraints: 
                CA:FALSE
    Signature Algorithm: ecdsa-with-SHA256
         30:45:02:20:2a:fe:b4:3c:98:46:ee:05:d4:0b:d7:97:ad:b9:
         96:e8:22:05:1e:37:1b:ed:32:2d:ae:88:2f:b7:70:c8:1d:c7:
         02:21:00:97:63:ea:5c:fc:14:dc:45:d9:cc:3f:b6:74:6a:b2:
         21:da:22:7a:02:40:d7:3a:55:5a:13:5a:bd:b0:a9:d4:6d
-----BEGIN CERTIFICATE-----
MIIBNzCB3qADAgECAgIQdzAKBggqhkjOPQQDAjAWMRQwEgYDVQQDDAtzcm9zMnRl
c3RDQTAeFw0yMDAxMDYwNTIwMDJaFw0zMDAxMDMwNTIwMDJaMCUxIzAhBgNVBAMM
Gi9wZXJmb3JtYW5jZV90ZXN0ODQ2OTMwODg2MFkwEwYHKoZIzj0CAQYIKoZIzj0D
AQcDQgAEfhzKcOuyq3WuBAJ4x4y4zH0nXCg0Gw6Gj8jjIIBe2Q902bbY+4pm4O9B
DHjN2wsJlw+RDZ18nADcQ6kY76b0kKMNMAswCQYDVR0TBAIwADAKBggqhkjOPQQD
AgNIADBFAiAq/rQ8mEbuBdQL15etuZboIgUeNxvtMi2uiC+3cMgdxwIhAJdj6lz8
FNxF2cw/tnRqsiHaInoCQNc6VVoTWr2wqdRt
-----END CERTIFICATE-----
