Certificate:
    Data:
        Version: 3 (0x2)
        Serial Number: 4216 (0x1078)
        Signature Algorithm: ecdsa-with-SHA256
        Issuer: CN=sros2testCA
        Validity
            Not Before: Feb  9 13:38:35 2020 GMT
            Not After : Feb  6 13:38:35 2030 GMT
        Subject: CN=/std_msgs_string_tmp0
        Subject Public Key Info:
            Public Key Algorithm: id-ecPublicKey
                Public-Key: (256 bit)
                pub:
                    04:d3:f5:f6:4c:ff:f7:49:82:a1:c7:4d:52:4c:54:
                    da:86:30:43:a5:44:ff:c1:d0:ac:6a:fe:40:3d:a2:
                    b9:21:57:fa:1d:03:80:c8:14:29:72:8a:8a:63:b4:
                    af:6b:e4:f6:06:64:ac:21:43:fb:b2:68:39:c6:db:
                    92:2c:3c:f7:0f
                ASN1 OID: prime256v1
                NIST CURVE: P-256
        X509v3 extensions:
            X509v3 Basic Constraints: 
                CA:FALSE
    Signature Algorithm: ecdsa-with-SHA256
         30:45:02:20:73:18:9a:9c:5f:60:d0:f2:49:12:89:2d:f0:18:
         47:97:a3:5a:2d:fe:33:af:54:58:74:22:3b:e6:c1:03:c6:99:
         02:21:00:a5:4b:6e:f2:cf:f2:c5:67:ca:61:28:d9:d2:8b:b6:
         c4:c7:ec:58:5d:7a:ae:70:b7:9e:d9:46:97:f7:65:90:fc
-----BEGIN CERTIFICATE-----
MIIBMjCB2aADAgECAgIQeDAKBggqhkjOPQQDAjAWMRQwEgYDVQQDDAtzcm9zMnRl
c3RDQTAeFw0yMDAyMDkxMzM4MzVaFw0zMDAyMDYxMzM4MzVaMCAxHjAcBgNVBAMM
FS9zdGRfbXNnc19zdHJpbmdfdG1wMDBZMBMGByqGSM49AgEGCCqGSM49AwEHA0IA
BNP19kz/90mCocdNUkxU2oYwQ6VE/8HQrGr+QD2iuSFX+h0DgMgUKXKKimO0r2vk
9gZkrCFD+7JoOcbbkiw89w+jDTALMAkGA1UdEwQCMAAwCgYIKoZIzj0EAwIDSAAw
RQIgcxianF9g0PJJEokt8BhHl6NaLf4zr1RYdCI75sEDxpkCIQClS27yz/LFZ8ph
KNnSi7bEx+xYXXqucLee2UaX92WQ/A==
-----END CERTIFICATE-----
