Certificate:
    Data:
        Version: 3 (0x2)
        Serial Number: 4217 (0x1079)
        Signature Algorithm: ecdsa-with-SHA256
        Issuer: CN=sros2testCA
        Validity
            Not Before: Feb  9 13:38:46 2020 GMT
            Not After : Feb  6 13:38:46 2030 GMT
        Subject: CN=/std_msgs_string_tmp1
        Subject Public Key Info:
            Public Key Algorithm: id-ecPublicKey
                Public-Key: (256 bit)
                pub:
                    04:22:90:d5:0d:24:f5:ed:8e:52:d9:c3:02:41:cc:
                    54:dd:5b:71:25:a2:e9:c0:48:cb:51:78:a3:70:68:
                    11:3e:e7:17:10:2a:a5:60:30:9a:00:c2:7e:ea:1c:
                    a9:2a:93:2d:3c:c8:46:34:84:09:2a:9d:8c:b0:85:
                    cb:04:7d:1c:58
                ASN1 OID: prime256v1
                NIST CURVE: P-256
        X509v3 extensions:
            X509v3 Basic Constraints: 
                CA:FALSE
    Signature Algorithm: ecdsa-with-SHA256
         30:45:02:20:75:5e:74:a0:49:20:e7:45:ec:fc:49:8b:28:45:
         b5:d3:37:0a:f1:61:2c:d2:17:d2:fc:8c:4d:73:ab:59:0f:02:
         02:21:00:81:8c:45:ce:0e:21:98:f4:69:3b:d3:00:8d:a4:84:
         7f:8c:1d:16:ad:84:24:6d:44:22:41:2b:4f:da:46:23:c8
-----BEGIN CERTIFICATE-----
MIIBMjCB2aADAgECAgIQeTAKBggqhkjOPQQDAjAWMRQwEgYDVQQDDAtzcm9zMnRl
c3RDQTAeFw0yMDAyMDkxMzM4NDZaFw0zMDAyMDYxMzM4NDZaMCAxHjAcBgNVBAMM
FS9zdGRfbXNnc19zdHJpbmdfdG1wMTBZMBMGByqGSM49AgEGCCqGSM49AwEHA0IA
BCKQ1Q0k9e2OUtnDAkHMVN1bcSWi6cBIy1F4o3BoET7nFxAqpWAwmgDCfuocqSqT
LTzIRjSECSqdjLCFywR9HFijDTALMAkGA1UdEwQCMAAwCgYIKoZIzj0EAwIDSAAw
RQIgdV50oEkg50Xs/EmLKEW10zcK8WEs0hfS/IxNc6tZDwICIQCBjEXODiGY9Gk7
0wCNpIR/jB0WrYQkbUQiQStP2kYjyA==
-----END CERTIFICATE-----
