Certificate:
    Data:
        Version: 3 (0x2)
        Serial Number: 4218 (0x107a)
        Signature Algorithm: ecdsa-with-SHA256
        Issuer: CN=sros2testCA
        Validity
            Not Before: Feb  9 13:46:10 2020 GMT
            Not After : Feb  6 13:46:10 2030 GMT
        Subject: CN=/std_msgs_string_tmp0
        Subject Public Key Info:
            Public Key Algorithm: id-ecPublicKey
                Public-Key: (256 bit)
                pub:
                    04:1d:a8:a8:6a:f9:2d:ad:af:e3:ad:d4:a9:2f:da:
                    46:93:7e:ca:d8:bb:f4:c8:b5:6e:93:bc:4f:07:49:
                    13:5f:3f:19:5e:25:04:c8:06:2c:f2:27:60:63:7a:
                    01:2d:be:55:c3:6e:d7:b8:8b:43:a1:fa:d0:f0:ef:
                    ab:9b:24:ad:d4
                ASN1 OID: prime256v1
                NIST CURVE: P-256
        X509v3 extensions:
            X509v3 Basic Constraints: 
                CA:FALSE
    Signature Algorithm: ecdsa-with-SHA256
         30:45:02:20:0b:72:0d:71:a6:2a:df:a1:b4:21:c9:7e:67:5d:
         2d:3c:15:5c:2d:a7:56:ba:56:ff:cf:ea:f4:14:90:fa:5d:ea:
         02:21:00:d5:9b:cd:8a:8c:15:24:68:3c:e8:76:2a:6e:4c:f7:
         8c:de:2d:1d:79:b7:00:59:2f:2a:c9:8a:f4:2c:33:bf:fb
-----BEGIN CERTIFICATE-----
MIIBMjCB2aADAgECAgIQejAKBggqhkjOPQQDAjAWMRQwEgYDVQQDDAtzcm9zMnRl
c3RDQTAeFw0yMDAyMDkxMzQ2MTBaFw0zMDAyMDYxMzQ2MTBaMCAxHjAcBgNVBAMM
FS9zdGRfbXNnc19zdHJpbmdfdG1wMDBZMBMGByqGSM49AgEGCCqGSM49AwEHA0IA
BB2oqGr5La2v463UqS/aRpN+yti79Mi1bpO8TwdJE18/GV4lBMgGLPInYGN6AS2+
VcNu17iLQ6H60PDvq5skrdSjDTALMAkGA1UdEwQCMAAwCgYIKoZIzj0EAwIDSAAw
RQIgC3INcaYq36G0Icl+Z10tPBVcLadWulb/z+r0FJD6XeoCIQDVm82KjBUkaDzo
dipuTPeM3i0debcAWS8qyYr0LDO/+w==
-----END CERTIFICATE-----
