Certificate:
    Data:
        Version: 3 (0x2)
        Serial Number: 4219 (0x107b)
        Signature Algorithm: ecdsa-with-SHA256
        Issuer: CN=sros2testCA
        Validity
            Not Before: Feb  9 13:46:20 2020 GMT
            Not After : Feb  6 13:46:20 2030 GMT
        Subject: CN=/std_msgs_string_tmp1
        Subject Public Key Info:
            Public Key Algorithm: id-ecPublicKey
                Public-Key: (256 bit)
                pub:
                    04:48:29:92:99:b2:00:34:cc:6e:e6:57:47:fd:89:
                    96:70:36:af:83:d7:4f:83:49:ed:95:8b:67:df:3f:
                    96:fc:b6:61:aa:8d:2b:c8:90:a1:59:be:3d:b1:43:
                    6d:19:49:45:70:27:73:5a:f5:b1:bd:40:6a:21:c8:
                    42:ee:5d:11:c3
                ASN1 OID: prime256v1
                NIST CURVE: P-256
        X509v3 extensions:
            X509v3 Basic Constraints: 
                CA:FALSE
    Signature Algorithm: ecdsa-with-SHA256
         30:46:02:21:00:b6:ee:98:44:fd:db:0c:bf:ed:cb:5e:bf:08:
         73:08:d3:8f:37:81:ee:c0:1f:fb:70:c7:73:55:c8:c4:39:06:
         5c:02:21:00:86:a3:cd:15:e1:80:83:8f:f7:7f:20:44:c4:3a:
         3b:10:0a:ec:96:eb:26:af:ea:6a:c6:eb:23:15:7a:05:7c:75
-----BEGIN CERTIFICATE-----
MIIBMzCB2aADAgECAgIQezAKBggqhkjOPQQDAjAWMRQwEgYDVQQDDAtzcm9zMnRl
c3RDQTAeFw0yMDAyMDkxMzQ2MjBaFw0zMDAyMDYxMzQ2MjBaMCAxHjAcBgNVBAMM
FS9zdGRfbXNnc19zdHJpbmdfdG1wMTBZMBMGByqGSM49AgEGCCqGSM49AwEHA0IA
BEgpkpmyADTMbuZXR/2JlnA2r4PXT4NJ7ZWLZ98/lvy2YaqNK8iQoVm+PbFDbRlJ
RXAnc1r1sb1AaiHIQu5dEcOjDTALMAkGA1UdEwQCMAAwCgYIKoZIzj0EAwIDSQAw
RgIhALbumET92wy/7ctevwhzCNOPN4HuwB/7cMdzVcjEOQZcAiEAhqPNFeGAg4/3
fyBExDo7EArslusmr+pqxusjFXoFfHU=
-----END CERTIFICATE-----
