Certificate:
    Data:
        Version: 3 (0x2)
        Serial Number: 4220 (0x107c)
        Signature Algorithm: ecdsa-with-SHA256
        Issuer: CN=sros2testCA
        Validity
            Not Before: Feb 11 17:22:26 2020 GMT
            Not After : Feb  8 17:22:26 2030 GMT
        Subject: CN=/std_msgs_string_tmp0
        Subject Public Key Info:
            Public Key Algorithm: id-ecPublicKey
                Public-Key: (256 bit)
                pub:
                    04:59:f4:21:66:38:9f:f1:36:93:52:6c:de:f8:27:
                    45:13:e3:67:52:7c:21:9c:f7:e3:d2:34:32:77:b8:
                    4e:01:0d:a9:28:73:53:c8:f6:8f:b9:9c:45:15:12:
                    61:0b:e8:90:df:6f:c7:10:a4:e9:74:c7:c6:1d:09:
                    56:85:87:52:3f
                ASN1 OID: prime256v1
                NIST CURVE: P-256
        X509v3 extensions:
            X509v3 Basic Constraints: 
                CA:FALSE
    Signature Algorithm: ecdsa-with-SHA256
         30:46:02:21:00:f2:8e:73:29:b9:11:42:9a:d9:a9:5c:fe:0b:
         d0:f5:53:dd:7e:f1:3e:d6:2f:fa:60:79:74:e0:0d:07:eb:81:
         5e:02:21:00:b7:32:4d:2e:46:67:be:78:9d:5d:7d:6a:09:0c:
         e9:a3:3c:e9:fd:04:45:5e:20:6d:3d:bc:e7:c2:d7:56:75:62
-----BEGIN CERTIFICATE-----
MIIBMzCB2aADAgECAgIQfDAKBggqhkjOPQQDAjAWMRQwEgYDVQQDDAtzcm9zMnRl
c3RDQTAeFw0yMDAyMTExNzIyMjZaFw0zMDAyMDgxNzIyMjZaMCAxHjAcBgNVBAMM
FS9zdGRfbXNnc19zdHJpbmdfdG1wMDBZMBMGByqGSM49AgEGCCqGSM49AwEHA0IA
BFn0IWY4n/E2k1Js3vgnRRPjZ1J8IZz349I0Mne4TgENqShzU8j2j7mcRRUSYQvo
kN9vxxCk6XTHxh0JVoWHUj+jDTALMAkGA1UdEwQCMAAwCgYIKoZIzj0EAwIDSQAw
RgIhAPKOcym5EUKa2alc/gvQ9VPdfvE+1i/6YHl04A0H64FeAiEAtzJNLkZnvnid
XX1qCQzpozzp/QRFXiBtPbznwtdWdWI=
-----END CERTIFICATE-----
