Certificate:
    Data:
        Version: 3 (0x2)
        Serial Number: 4221 (0x107d)
        Signature Algorithm: ecdsa-with-SHA256
        Issuer: CN=sros2testCA
        Validity
            Not Before: Feb 11 18:12:27 2020 GMT
            Not After : Feb  8 18:12:27 2030 GMT
        Subject: CN=/std_msgs_string_tmp0
        Subject Public Key Info:
            Public Key Algorithm: id-ecPublicKey
                Public-Key: (256 bit)
                pub:
                    04:dd:64:71:31:b4:b5:30:7c:21:0c:d0:da:7b:f0:
                    17:cb:38:de:cd:27:7b:76:55:7b:38:f6:2f:30:74:
                    b8:57:39:c6:bf:af:7d:ee:e9:bc:43:19:ad:e8:de:
                    50:ba:68:4f:13:c3:5b:17:12:9f:1f:29:8c:24:cb:
                    34:3c:58:a4:90
                ASN1 OID: prime256v1
                NIST CURVE: P-256
        X509v3 extensions:
            X509v3 Basic Constraints: 
                CA:FALSE
    Signature Algorithm: ecdsa-with-SHA256
         30:45:02:21:00:a9:aa:32:ae:11:31:cb:c0:78:4d:79:2a:4b:
         57:7c:1b:93:bc:94:09:56:e8:68:09:17:e2:05:82:4e:13:44:
         6b:02:20:49:d7:5d:fc:19:72:b0:ef:fd:7f:61:7a:70:fa:e1:
         20:d1:b6:5e:02:c3:cd:2d:7e:9b:45:69:ae:c1:70:2c:d4
-----BEGIN CERTIFICATE-----
MIIBMjCB2aADAgECAgIQfTAKBggqhkjOPQQDAjAWMRQwEgYDVQQDDAtzcm9zMnRl
c3RDQTAeFw0yMDAyMTExODEyMjdaFw0zMDAyMDgxODEyMjdaMCAxHjAcBgNVBAMM
FS9zdGRfbXNnc19zdHJpbmdfdG1wMDBZMBMGByqGSM49AgEGCCqGSM49AwEHA0IA
BN1kcTG0tTB8IQzQ2nvwF8s43s0ne3ZVezj2LzB0uFc5xr+vfe7pvEMZrejeULpo
TxPDWxcSnx8pjCTLNDxYpJCjDTALMAkGA1UdEwQCMAAwCgYIKoZIzj0EAwIDSAAw
RQIhAKmqMq4RMcvAeE15KktXfBuTvJQJVuhoCRfiBYJOE0RrAiBJ1138GXKw7/1/
YXpw+uEg0bZeAsPNLX6bRWmuwXAs1A==
-----END CERTIFICATE-----
