Certificate:
    Data:
        Version: 3 (0x2)
        Serial Number: 4222 (0x107e)
        Signature Algorithm: ecdsa-with-SHA256
        Issuer: CN=sros2testCA
        Validity
            Not Before: Feb 11 18:18:21 2020 GMT
            Not After : Feb  8 18:18:21 2030 GMT
        Subject: CN=/std_msgs_string_tmp0
        Subject Public Key Info:
            Public Key Algorithm: id-ecPublicKey
                Public-Key: (256 bit)
                pub:
                    04:00:0d:b8:e8:9f:74:a8:e6:58:2e:2f:7a:03:78:
                    4d:49:5f:0a:c5:14:c7:c1:1a:af:75:94:fc:f1:4a:
                    5b:ab:30:65:fc:5b:83:d1:ed:6f:20:b7:e2:95:1c:
                    cd:e0:18:5a:8b:77:47:d3:9c:b3:5b:e6:e6:1b:bd:
                    12:eb:ad:6f:9c
                ASN1 OID: prime256v1
                NIST CURVE: P-256
        X509v3 extensions:
            X509v3 Basic Constraints: 
                CA:FALSE
    Signature Algorithm: ecdsa-with-SHA256
         30:45:02:20:78:d7:b0:41:c0:25:b4:0e:04:c5:fa:3e:31:83:
         3c:0c:db:ec:b5:0a:95:47:9e:7e:c9:c2:9c:9b:94:3b:7b:20:
         02:21:00:be:b7:5d:81:78:d8:0d:ac:fa:3b:33:29:3b:d0:1d:
         c0:95:a5:ad:1b:0b:4f:b2:98:82:38:da:c0:26:40:ac:2b
-----BEGIN CERTIFICATE-----
MIIBMjCB2aADAgECAgIQfjAKBggqhkjOPQQDAjAWMRQwEgYDVQQDDAtzcm9zMnRl
c3RDQTAeFw0yMDAyMTExODE4MjFaFw0zMDAyMDgxODE4MjFaMCAxHjAcBgNVBAMM
FS9zdGRfbXNnc19zdHJpbmdfdG1wMDBZMBMGByqGSM49AgEGCCqGSM49AwEHA0IA
BAANuOifdKjmWC4vegN4TUlfCsUUx8Ear3WU/PFKW6swZfxbg9HtbyC34pUczeAY
Wot3R9Ocs1vm5hu9Euutb5yjDTALMAkGA1UdEwQCMAAwCgYIKoZIzj0EAwIDSAAw
RQIgeNewQcAltA4Exfo+MYM8DNvstQqVR55+ycKcm5Q7eyACIQC+t12BeNgNrPo7
Myk70B3AlaWtGwtPspiCONrAJkCsKw==
-----END CERTIFICATE-----
