Certificate:
    Data:
        Version: 3 (0x2)
        Serial Number: 4223 (0x107f)
        Signature Algorithm: ecdsa-with-SHA256
        Issuer: CN=sros2testCA
        Validity
            Not Before: Feb 11 18:24:46 2020 GMT
            Not After : Feb  8 18:24:46 2030 GMT
        Subject: CN=/std_msgs_string_tmp0
        Subject Public Key Info:
            Public Key Algorithm: id-ecPublicKey
                Public-Key: (256 bit)
                pub:
                    04:92:7e:b0:ab:d2:b3:44:dc:9a:31:c2:f7:a8:41:
                    92:76:bf:23:33:84:c2:05:d6:9e:95:f8:96:3b:7c:
                    0f:5e:5b:11:af:62:38:a3:d4:a3:41:d7:f6:42:de:
                    c4:6d:41:17:04:cf:30:66:33:bf:d7:3a:21:7b:c0:
                    d0:34:ae:78:35
                ASN1 OID: prime256v1
                NIST CURVE: P-256
        X509v3 extensions:
            X509v3 Basic Constraints: 
                CA:FALSE
    Signature Algorithm: ecdsa-with-SHA256
         30:45:02:21:00:e0:36:01:78:91:1d:cf:86:ee:16:0e:a5:48:
         ab:bc:fd:69:e2:29:04:2d:85:72:3b:d1:1f:67:9e:2b:a5:02:
         ca:02:20:32:6f:4f:a4:2d:d9:25:26:44:cb:1c:71:9c:fa:7c:
         e0:ce:45:12:85:df:e8:d0:55:1c:4f:01:32:39:e9:f1:63
-----BEGIN CERTIFICATE-----
MIIBMjCB2aADAgECAgIQfzAKBggqhkjOPQQDAjAWMRQwEgYDVQQDDAtzcm9zMnRl
c3RDQTAeFw0yMDAyMTExODI0NDZaFw0zMDAyMDgxODI0NDZaMCAxHjAcBgNVBAMM
FS9zdGRfbXNnc19zdHJpbmdfdG1wMDBZMBMGByqGSM49AgEGCCqGSM49AwEHA0IA
BJJ+sKvSs0TcmjHC96hBkna/IzOEwgXWnpX4ljt8D15bEa9iOKPUo0HX9kLexG1B
FwTPMGYzv9c6IXvA0DSueDWjDTALMAkGA1UdEwQCMAAwCgYIKoZIzj0EAwIDSAAw
RQIhAOA2AXiRHc+G7hYOpUirvP1p4ikELYVyO9EfZ54rpQLKAiAyb0+kLdklJkTL
HHGc+nzgzkUShd/o0FUcTwEyOenxYw==
-----END CERTIFICATE-----
