Certificate:
    Data:
        Version: 3 (0x2)
        Serial Number: 4224 (0x1080)
        Signature Algorithm: ecdsa-with-SHA256
        Issuer: CN=sros2testCA
        Validity
            Not Before: Feb 12 04:51:22 2020 GMT
            Not After : Feb  9 04:51:22 2030 GMT
        Subject: CN=/std_msgs_string_tmp0
        Subject Public Key Info:
            Public Key Algorithm: id-ecPublicKey
                Public-Key: (256 bit)
                pub:
                    04:9a:58:23:69:81:67:21:2e:28:ae:0f:ca:da:17:
                    d4:80:6e:62:a1:0e:30:be:52:73:65:14:0b:10:ba:
                    8d:e6:57:34:7c:16:c6:d4:ff:4f:df:9e:06:77:fc:
                    17:7d:cb:08:4e:19:61:6f:bf:23:6c:dd:88:e1:57:
                    3f:3b:4b:f8:24
                ASN1 OID: prime256v1
                NIST CURVE: P-256
        X509v3 extensions:
            X509v3 Basic Constraints: 
                CA:FALSE
    Signature Algorithm: ecdsa-with-SHA256
         30:45:02:20:74:a2:3b:32:03:93:32:d0:c9:b3:91:8e:12:c4:
         aa:94:93:8a:b4:fc:04:d7:92:da:d8:b5:3c:bc:76:ec:c6:ab:
         02:21:00:96:db:6f:24:86:17:c0:e7:bf:dc:d7:7b:5e:b4:a8:
         e0:74:72:dd:4f:80:96:5c:a2:e9:2b:80:e0:38:a0:35:b3
-----BEGIN CERTIFICATE-----
MIIBMjCB2aADAgECAgIQgDAKBggqhkjOPQQDAjAWMRQwEgYDVQQDDAtzcm9zMnRl
c3RDQTAeFw0yMDAyMTIwNDUxMjJaFw0zMDAyMDkwNDUxMjJaMCAxHjAcBgNVBAMM
FS9zdGRfbXNnc19zdHJpbmdfdG1wMDBZMBMGByqGSM49AgEGCCqGSM49AwEHA0IA
BJpYI2mBZyEuKK4PytoX1IBuYqEOML5Sc2UUCxC6jeZXNHwWxtT/T9+eBnf8F33L
CE4ZYW+/I2zdiOFXPztL+CSjDTALMAkGA1UdEwQCMAAwCgYIKoZIzj0EAwIDSAAw
RQIgdKI7MgOTMtDJs5GOEsSqlJOKtPwE15La2LU8vHbsxqsCIQCW228khhfA57/c
13tetKjgdHLdT4CWXKLpK4DgOKA1sw==
-----END CERTIFICATE-----
