Certificate:
    Data:
        Version: 3 (0x2)
        Serial Number: 4225 (0x1081)
        Signature Algorithm: ecdsa-with-SHA256
        Issuer: CN=sros2testCA
        Validity
            Not Before: Feb 12 04:53:55 2020 GMT
            Not After : Feb  9 04:53:55 2030 GMT
        Subject: CN=/std_msgs_string_tmp0
        Subject Public Key Info:
            Public Key Algorithm: id-ecPublicKey
                Public-Key: (256 bit)
                pub:
                    04:5b:36:9c:7d:3d:ab:94:ca:27:63:ef:31:71:e6:
                    e4:19:7d:b1:9c:90:75:70:1a:bf:7e:48:f1:4a:c9:
                    cb:6b:32:ee:72:ac:f0:3f:f8:5f:d3:31:cd:b8:5c:
                    81:fb:45:19:69:d4:3a:c4:16:db:4a:25:d6:f0:82:
                    af:b1:f9:3d:f1
                ASN1 OID: prime256v1
                NIST CURVE: P-256
        X509v3 extensions:
            X509v3 Basic Constraints: 
                CA:FALSE
    Signature Algorithm: ecdsa-with-SHA256
         30:44:02:20:33:1c:24:b0:ec:21:a9:ad:83:0c:48:f2:74:7a:
         92:1c:f5:41:fa:7f:2f:57:75:33:83:1e:98:da:a4:51:fe:84:
         02:20:3f:0b:88:6d:9c:29:40:5a:b7:c9:96:6d:97:ac:9f:30:
         a9:a2:5e:bf:2b:a2:0e:60:4d:b8:bd:af:82:5f:59:d6
-----BEGIN CERTIFICATE-----
MIIBMTCB2aADAgECAgIQgTAKBggqhkjOPQQDAjAWMRQwEgYDVQQDDAtzcm9zMnRl
c3RDQTAeFw0yMDAyMTIwNDUzNTVaFw0zMDAyMDkwNDUzNTVaMCAxHjAcBgNVBAMM
FS9zdGRfbXNnc19zdHJpbmdfdG1wMDBZMBMGByqGSM49AgEGCCqGSM49AwEHA0IA
BFs2nH09q5TKJ2PvMXHm5Bl9sZyQdXAav35I8UrJy2sy7nKs8D/4X9MxzbhcgftF
GWnUOsQW20ol1vCCr7H5PfGjDTALMAkGA1UdEwQCMAAwCgYIKoZIzj0EAwIDRwAw
RAIgMxwksOwhqa2DDEjydHqSHPVB+n8vV3Uzgx6Y2qRR/oQCID8LiG2cKUBat8mW
bZesnzCpol6/K6IOYE24va+CX1nW
-----END CERTIFICATE-----
