Certificate:
    Data:
        Version: 3 (0x2)
        Serial Number: 4226 (0x1082)
        Signature Algorithm: ecdsa-with-SHA256
        Issuer: CN=sros2testCA
        Validity
            Not Before: Feb 12 04:54:42 2020 GMT
            Not After : Feb  9 04:54:42 2030 GMT
        Subject: CN=/std_msgs_string_tmp0
        Subject Public Key Info:
            Public Key Algorithm: id-ecPublicKey
                Public-Key: (256 bit)
                pub:
                    04:29:fb:df:78:de:d4:a0:ec:47:60:90:0c:9b:a7:
                    9d:f3:e4:c0:69:24:92:d4:31:4c:1b:b6:19:f6:03:
                    b4:03:4b:80:11:77:38:21:44:b1:fd:43:61:f9:0c:
                    14:e8:63:4c:7c:56:f6:cc:9f:2f:ca:2b:22:7e:33:
                    a0:66:6a:2f:93
                ASN1 OID: prime256v1
                NIST CURVE: P-256
        X509v3 extensions:
            X509v3 Basic Constraints: 
                CA:FALSE
    Signature Algorithm: ecdsa-with-SHA256
         30:45:02:21:00:f0:d6:30:6a:31:2a:7f:e1:96:1f:24:5b:1a:
         e3:92:d6:9e:38:e2:7a:2f:5f:d0:61:b9:d7:6d:a8:20:c3:2c:
         b7:02:20:37:95:59:96:7c:90:03:72:0f:af:e5:73:3a:1b:91:
         b1:e9:cf:cb:10:79:d5:72:f1:41:0b:44:b8:fd:04:70:2f
-----BEGIN CERTIFICATE-----
MIIBMjCB2aADAgECAgIQgjAKBggqhkjOPQQDAjAWMRQwEgYDVQQDDAtzcm9zMnRl
c3RDQTAeFw0yMDAyMTIwNDU0NDJaFw0zMDAyMDkwNDU0NDJaMCAxHjAcBgNVBAMM
FS9zdGRfbXNnc19zdHJpbmdfdG1wMDBZMBMGByqGSM49AgEGCCqGSM49AwEHA0IA
BCn733je1KDsR2CQDJunnfPkwGkkktQxTBu2GfYDtANLgBF3OCFEsf1DYfkMFOhj
THxW9syfL8orIn4zoGZqL5OjDTALMAkGA1UdEwQCMAAwCgYIKoZIzj0EAwIDSAAw
RQIhAPDWMGoxKn/hlh8kWxrjktaeOOJ6L1/QYbnXbaggwyy3AiA3lVmWfJADcg+v
5XM6G5Gx6c/LEHnVcvFBC0S4/QRwLw==
-----END CERTIFICATE-----
