Certificate:
    Data:
        Version: 3 (0x2)
        Serial Number: 4227 (0x1083)
        Signature Algorithm: ecdsa-with-SHA256
        Issuer: CN=sros2testCA
        Validity
            Not Before: Feb 12 04:56:17 2020 GMT
            Not After : Feb  9 04:56:17 2030 GMT
        Subject: CN=/std_msgs_string_tmp0
        Subject Public Key Info:
            Public Key Algorithm: id-ecPublicKey
                Public-Key: (256 bit)
                pub:
                    04:1b:5f:1b:f2:af:11:b4:e6:54:f5:03:f8:64:ae:
                    a7:81:9e:f1:c7:c9:65:f4:90:e3:64:1f:3e:ce:0f:
                    c9:a6:9b:f2:bc:59:da:7c:ef:4c:33:56:0d:ba:4d:
                    da:e1:2b:98:73:17:9d:48:27:06:3a:86:a8:54:81:
                    b4:34:d6:f4:cb
                ASN1 OID: prime256v1
                NIST CURVE: P-256
        X509v3 extensions:
            X509v3 Basic Constraints: 
                CA:FALSE
    Signature Algorithm: ecdsa-with-SHA256
         30:46:02:21:00:98:f5:79:a5:ae:e6:ba:33:a2:71:75:7a:98:
         c0:a9:9c:1c:17:75:30:1a:36:bf:13:dc:f0:7b:c2:8f:23:38:
         52:02:21:00:bf:88:93:6f:fc:59:a8:f6:e7:f5:e5:1b:3f:c2:
         02:f2:dd:bc:61:c6:c7:f2:0b:62:52:6a:db:7b:a1:71:9b:88
-----BEGIN CERTIFICATE-----
MIIBMzCB2aADAgECAgIQgzAKBggqhkjOPQQDAjAWMRQwEgYDVQQDDAtzcm9zMnRl
c3RDQTAeFw0yMDAyMTIwNDU2MTdaFw0zMDAyMDkwNDU2MTdaMCAxHjAcBgNVBAMM
FS9zdGRfbXNnc19zdHJpbmdfdG1wMDBZMBMGByqGSM49AgEGCCqGSM49AwEHA0IA
BBtfG/KvEbTmVPUD+GSup4Ge8cfJZfSQ42QfPs4Pyaab8rxZ2nzvTDNWDbpN2uEr
mHMXnUgnBjqGqFSBtDTW9MujDTALMAkGA1UdEwQCMAAwCgYIKoZIzj0EAwIDSQAw
RgIhAJj1eaWu5rozonF1epjAqZwcF3UwGja/E9zwe8KPIzhSAiEAv4iTb/xZqPbn
9eUbP8IC8t28YcbH8gtiUmrbe6Fxm4g=
-----END CERTIFICATE-----
