Certificate:
    Data:
        Version: 3 (0x2)
        Serial Number: 4228 (0x1084)
        Signature Algorithm: ecdsa-with-SHA256
        Issuer: CN=sros2testCA
        Validity
            Not Before: Feb 12 05:00:39 2020 GMT
            Not After : Feb  9 05:00:39 2030 GMT
        Subject: CN=/std_msgs_string_tmp0
        Subject Public Key Info:
            Public Key Algorithm: id-ecPublicKey
                Public-Key: (256 bit)
                pub:
                    04:8a:97:63:dc:f4:bf:f1:62:8e:d1:3d:bf:f2:f9:
                    45:80:a8:11:50:c2:65:dd:ea:e9:3b:d9:db:a8:96:
                    1d:d8:7c:08:21:cd:4b:5c:3f:b7:a9:cf:d1:f2:b1:
                    9b:fe:83:b6:ab:cf:9a:c2:ec:a9:8c:9f:b8:2b:cf:
                    dc:f5:67:0e:86
                ASN1 OID: prime256v1
                NIST CURVE: P-256
        X509v3 extensions:
            X509v3 Basic Constraints: 
                CA:FALSE
    Signature Algorithm: ecdsa-with-SHA256
         30:45:02:20:32:47:8a:07:d3:98:a4:47:ca:d4:4d:16:84:93:
         25:a8:d4:e0:d8:72:9e:8f:4b:f3:75:19:c4:1a:f0:51:41:03:
         02:21:00:f2:95:8f:b5:d4:4c:25:a1:ce:2e:96:43:ab:99:92:
         9e:5a:24:ce:5a:05:0f:0a:61:61:f8:71:ff:7d:3f:99:6e
-----BEGIN CERTIFICATE-----
MIIBMjCB2aADAgECAgIQhDAKBggqhkjOPQQDAjAWMRQwEgYDVQQDDAtzcm9zMnRl
c3RDQTAeFw0yMDAyMTIwNTAwMzlaFw0zMDAyMDkwNTAwMzlaMCAxHjAcBgNVBAMM
FS9zdGRfbXNnc19zdHJpbmdfdG1wMDBZMBMGByqGSM49AgEGCCqGSM49AwEHA0IA
BIqXY9z0v/FijtE9v/L5RYCoEVDCZd3q6TvZ26iWHdh8CCHNS1w/t6nP0fKxm/6D
tqvPmsLsqYyfuCvP3PVnDoajDTALMAkGA1UdEwQCMAAwCgYIKoZIzj0EAwIDSAAw
RQIgMkeKB9OYpEfK1E0WhJMlqNTg2HKej0vzdRnEGvBRQQMCIQDylY+11Ewloc4u
lkOrmZKeWiTOWgUPCmFh+HH/fT+Zbg==
-----END CERTIFICATE-----
