Certificate:
    Data:
        Version: 3 (0x2)
        Serial Number: 4229 (0x1085)
        Signature Algorithm: ecdsa-with-SHA256
        Issuer: CN=sros2testCA
        Validity
            Not Before: Feb 12 05:03:24 2020 GMT
            Not After : Feb  9 05:03:24 2030 GMT
        Subject: CN=/std_msgs_string_tmp0
        Subject Public Key Info:
            Public Key Algorithm: id-ecPublicKey
                Public-Key: (256 bit)
                pub:
                    04:3e:a9:a1:03:7e:11:08:06:6b:ca:a7:66:14:7c:
                    58:2e:ee:bd:fb:c9:63:da:42:55:06:86:62:3d:ab:
                    f0:ba:56:bb:d5:64:12:7d:1f:be:e8:35:67:a3:1d:
                    a2:3b:09:3e:e2:d8:9a:c7:4f:22:8e:4f:1e:d0:25:
                    83:00:5e:e1:bd
                ASN1 OID: prime256v1
                NIST CURVE: P-256
        X509v3 extensions:
            X509v3 Basic Constraints: 
                CA:FALSE
    Signature Algorithm: ecdsa-with-SHA256
         30:46:02:21:00:dd:d5:04:5c:c8:88:58:98:42:7f:10:e1:1a:
         63:5f:8d:4d:d4:0f:bb:59:69:dc:36:59:57:d0:4f:2f:00:48:
         51:02:21:00:b8:21:4f:48:b6:fb:aa:dc:bd:c9:14:ad:db:8b:
         2e:73:16:e2:4e:70:d6:55:ae:49:5b:d0:74:d9:d7:b7:e8:71
-----BEGIN CERTIFICATE-----
MIIBMzCB2aADAgECAgIQhTAKBggqhkjOPQQDAjAWMRQwEgYDVQQDDAtzcm9zMnRl
c3RDQTAeFw0yMDAyMTIwNTAzMjRaFw0zMDAyMDkwNTAzMjRaMCAxHjAcBgNVBAMM
FS9zdGRfbXNnc19zdHJpbmdfdG1wMDBZMBMGByqGSM49AgEGCCqGSM49AwEHA0IA
BD6poQN+EQgGa8qnZhR8WC7uvfvJY9pCVQaGYj2r8LpWu9VkEn0fvug1Z6MdojsJ
PuLYmsdPIo5PHtAlgwBe4b2jDTALMAkGA1UdEwQCMAAwCgYIKoZIzj0EAwIDSQAw
RgIhAN3VBFzIiFiYQn8Q4RpjX41N1A+7WWncNllX0E8vAEhRAiEAuCFPSLb7qty9
yRSt24sucxbiTnDWVa5JW9B02de36HE=
-----END CERTIFICATE-----
