Certificate:
    Data:
        Version: 3 (0x2)
        Serial Number: 4230 (0x1086)
        Signature Algorithm: ecdsa-with-SHA256
        Issuer: CN=sros2testCA
        Validity
            Not Before: Feb 12 05:04:37 2020 GMT
            Not After : Feb  9 05:04:37 2030 GMT
        Subject: CN=/std_msgs_string_tmp0
        Subject Public Key Info:
            Public Key Algorithm: id-ecPublicKey
                Public-Key: (256 bit)
                pub:
                    04:e9:bb:43:eb:d4:f4:e8:7c:6f:3f:6f:b6:81:39:
                    aa:e6:51:4f:60:ea:b1:51:85:af:47:ca:8e:9e:71:
                    04:20:08:a0:ce:49:8a:b1:8d:1b:5f:61:5e:3e:28:
                    68:7c:eb:80:4e:5b:7e:ae:25:7c:8d:c3:e5:2d:36:
                    8f:28:3b:26:21
                ASN1 OID: prime256v1
                NIST CURVE: P-256
        X509v3 extensions:
            X509v3 Basic Constraints: 
                CA:FALSE
    Signature Algorithm: ecdsa-with-SHA256
         30:46:02:21:00:9f:4e:2b:3a:91:a5:d6:e3:5e:34:01:8d:78:
         5c:d7:6a:2a:18:3a:0b:33:39:29:81:de:80:15:23:f0:d8:32:
         6b:02:21:00:eb:7e:bd:13:11:fb:88:22:ce:3d:f4:f5:7a:1b:
         f5:80:33:1c:84:6f:19:74:a7:28:1b:50:cb:e9:41:be:a3:de
-----BEGIN CERTIFICATE-----
MIIBMzCB2aADAgECAgIQhjAKBggqhkjOPQQDAjAWMRQwEgYDVQQDDAtzcm9zMnRl
c3RDQTAeFw0yMDAyMTIwNTA0MzdaFw0zMDAyMDkwNTA0MzdaMCAxHjAcBgNVBAMM
FS9zdGRfbXNnc19zdHJpbmdfdG1wMDBZMBMGByqGSM49AgEGCCqGSM49AwEHA0IA
BOm7Q+vU9Oh8bz9vtoE5quZRT2DqsVGFr0fKjp5xBCAIoM5JirGNG19hXj4oaHzr
gE5bfq4lfI3D5S02jyg7JiGjDTALMAkGA1UdEwQCMAAwCgYIKoZIzj0EAwIDSQAw
RgIhAJ9OKzqRpdbjXjQBjXhc12oqGDoLMzkpgd6AFSPw2DJrAiEA6369ExH7iCLO
PfT1ehv1gDMchG8ZdKcoG1DL6UG+o94=
-----END CERTIFICATE-----
