Certificate:
    Data:
        Version: 3 (0x2)
        Serial Number: 4231 (0x1087)
        Signature Algorithm: ecdsa-with-SHA256
        Issuer: CN=sros2testCA
        Validity
            Not Before: Feb 12 05:45:07 2020 GMT
            Not After : Feb  9 05:45:07 2030 GMT
        Subject: CN=/std_msgs_string_tmp0
        Subject Public Key Info:
            Public Key Algorithm: id-ecPublicKey
                Public-Key: (256 bit)
                pub:
                    04:eb:3c:5d:43:4b:34:be:92:e6:ef:ab:59:3e:f1:
                    b6:45:98:50:42:ff:4a:5d:7f:0a:c4:85:d4:b5:48:
                    b5:dc:b5:d8:62:16:d6:ad:9b:70:7f:10:81:56:db:
                    15:f8:4b:e8:d0:f7:fc:05:08:9d:6e:1c:71:93:a0:
                    e9:02:e5:69:c9
                ASN1 OID: prime256v1
                NIST CURVE: P-256
        X509v3 extensions:
            X509v3 Basic Constraints: 
                CA:FALSE
    Signature Algorithm: ecdsa-with-SHA256
         30:46:02:21:00:b1:17:df:93:8d:14:40:7c:81:40:41:5c:39:
         85:52:bf:d5:a8:86:5b:9b:4f:de:7a:d1:52:68:fa:89:e0:c6:
         04:02:21:00:b0:fe:10:8d:b7:6a:c5:f5:e2:b5:dc:d7:38:1a:
         b8:84:dc:8a:63:40:c8:95:a9:52:60:67:bc:37:41:5c:20:6c
-----BEGIN CERTIFICATE-----
MIIBMzCB2aADAgECAgIQhzAKBggqhkjOPQQDAjAWMRQwEgYDVQQDDAtzcm9zMnRl
c3RDQTAeFw0yMDAyMTIwNTQ1MDdaFw0zMDAyMDkwNTQ1MDdaMCAxHjAcBgNVBAMM
FS9zdGRfbXNnc19zdHJpbmdfdG1wMDBZMBMGByqGSM49AgEGCCqGSM49AwEHA0IA
BOs8XUNLNL6S5u+rWT7xtkWYUEL/Sl1/CsSF1LVItdy12GIW1q2bcH8QgVbbFfhL
6ND3/AUInW4ccZOg6QLlacmjDTALMAkGA1UdEwQCMAAwCgYIKoZIzj0EAwIDSQAw
RgIhALEX35ONFEB8gUBBXDmFUr/VqIZbm0/eetFSaPqJ4MYEAiEAsP4QjbdqxfXi
tdzXOBq4hNyKY0DIlalSYGe8N0FcIGw=
-----END CERTIFICATE-----
