Certificate:
    Data:
        Version: 3 (0x2)
        Serial Number: 4232 (0x1088)
        Signature Algorithm: ecdsa-with-SHA256
        Issuer: CN=sros2testCA
        Validity
            Not Before: Feb 12 05:59:36 2020 GMT
            Not After : Feb  9 05:59:36 2030 GMT
        Subject: CN=/std_msgs_string_tmp0
        Subject Public Key Info:
            Public Key Algorithm: id-ecPublicKey
                Public-Key: (256 bit)
                pub:
                    04:9a:84:54:2e:ad:db:5e:f3:ce:3c:c3:f4:b3:de:
                    37:17:f1:ba:a9:0f:a9:ce:cf:3f:bf:34:c5:d3:7d:
                    9c:6f:4c:8c:ac:ae:7e:ce:91:2f:7a:06:73:ff:dd:
                    d2:bf:f2:27:9d:1e:90:1c:3d:df:87:94:31:89:02:
                    a5:93:48:a9:60
                ASN1 OID: prime256v1
                NIST CURVE: P-256
        X509v3 extensions:
            X509v3 Basic Constraints: 
                CA:FALSE
    Signature Algorithm: ecdsa-with-SHA256
         30:45:02:21:00:8d:3f:7c:ea:0d:61:e6:52:4a:ec:3b:4d:5f:
         a1:8a:bc:69:34:20:27:91:90:30:17:28:04:51:69:dc:d3:dc:
         7c:02:20:43:05:31:01:cd:5c:03:11:68:3e:a7:fb:1e:13:30:
         96:75:a6:f9:40:d7:0a:b3:60:f1:00:b5:50:df:3b:d0:87
-----BEGIN CERTIFICATE-----
MIIBMjCB2aADAgECAgIQiDAKBggqhkjOPQQDAjAWMRQwEgYDVQQDDAtzcm9zMnRl
c3RDQTAeFw0yMDAyMTIwNTU5MzZaFw0zMDAyMDkwNTU5MzZaMCAxHjAcBgNVBAMM
FS9zdGRfbXNnc19zdHJpbmdfdG1wMDBZMBMGByqGSM49AgEGCCqGSM49AwEHA0IA
BJqEVC6t217zzjzD9LPeNxfxuqkPqc7PP780xdN9nG9MjKyufs6RL3oGc//d0r/y
J50ekBw934eUMYkCpZNIqWCjDTALMAkGA1UdEwQCMAAwCgYIKoZIzj0EAwIDSAAw
RQIhAI0/fOoNYeZSSuw7TV+hirxpNCAnkZAwFygEUWnc09x8AiBDBTEBzVwDEWg+
p/seEzCWdab5QNcKs2DxALVQ3zvQhw==
-----END CERTIFICATE-----
