Certificate:
    Data:
        Version: 3 (0x2)
        Serial Number: 4233 (0x1089)
        Signature Algorithm: ecdsa-with-SHA256
        Issuer: CN=sros2testCA
        Validity
            Not Before: Feb 12 06:09:32 2020 GMT
            Not After : Feb  9 06:09:32 2030 GMT
        Subject: CN=/std_msgs_string_tmp0
        Subject Public Key Info:
            Public Key Algorithm: id-ecPublicKey
                Public-Key: (256 bit)
                pub:
                    04:6e:bd:db:65:1e:36:b9:e8:5c:6f:95:8a:e9:f9:
                    b7:32:13:32:4a:46:40:fc:78:0a:19:81:4a:e5:d9:
                    dd:c3:b7:53:cd:33:b4:68:c9:d8:b3:bc:0e:de:3f:
                    00:c1:6e:a4:a0:e6:bb:4f:78:84:38:97:12:b0:3e:
                    93:14:67:48:b0
                ASN1 OID: prime256v1
                NIST CURVE: P-256
        X509v3 extensions:
            X509v3 Basic Constraints: 
                CA:FALSE
    Signature Algorithm: ecdsa-with-SHA256
         30:46:02:21:00:b0:fd:75:ac:50:96:09:5f:8d:95:b3:87:e4:
         b4:44:27:86:e8:80:89:aa:49:21:10:c8:c7:50:10:b0:4f:99:
         1f:02:21:00:8c:c5:1b:ab:17:19:11:2f:f6:a6:46:8d:79:1a:
         97:19:02:30:d5:7e:6b:53:6c:e8:10:6d:ee:12:f0:22:f6:a0
-----BEGIN CERTIFICATE-----
MIIBMzCB2aADAgECAgIQiTAKBggqhkjOPQQDAjAWMRQwEgYDVQQDDAtzcm9zMnRl
c3RDQTAeFw0yMDAyMTIwNjA5MzJaFw0zMDAyMDkwNjA5MzJaMCAxHjAcBgNVBAMM
FS9zdGRfbXNnc19zdHJpbmdfdG1wMDBZMBMGByqGSM49AgEGCCqGSM49AwEHA0IA
BG6922UeNrnoXG+Viun5tzITMkpGQPx4ChmBSuXZ3cO3U80ztGjJ2LO8Dt4/AMFu
pKDmu094hDiXErA+kxRnSLCjDTALMAkGA1UdEwQCMAAwCgYIKoZIzj0EAwIDSQAw
RgIhALD9daxQlglfjZWzh+S0RCeG6ICJqkkhEMjHUBCwT5kfAiEAjMUbqxcZES/2
pkaNeRqXGQIw1X5rU2zoEG3uEvAi9qA=
-----END CERTIFICATE-----
