Certificate:
    Data:
        Version: 3 (0x2)
        Serial Number: 4234 (0x108a)
        Signature Algorithm: ecdsa-with-SHA256
        Issuer: CN=sros2testCA
        Validity
            Not Before: Feb 12 06:12:47 2020 GMT
            Not After : Feb  9 06:12:47 2030 GMT
        Subject: CN=/std_msgs_string_tmp0
        Subject Public Key Info:
            Public Key Algorithm: id-ecPublicKey
                Public-Key: (256 bit)
                pub:
                    04:64:47:ef:1d:47:22:a2:c9:5f:89:75:4c:99:cd:
                    91:2c:2a:49:aa:52:c8:6b:0d:2b:b1:bf:3b:de:fe:
                    89:93:58:15:b6:da:83:0b:06:5a:d0:08:c0:ba:db:
                    b9:84:f5:66:d8:e1:67:18:72:53:bd:39:4f:da:c3:
                    1a:cc:c4:03:c3
                ASN1 OID: prime256v1
                NIST CURVE: P-256
        X509v3 extensions:
            X509v3 Basic Constraints: 
                CA:FALSE
    Signature Algorithm: ecdsa-with-SHA256
         30:44:02:20:34:e8:14:b3:a3:3a:ac:55:a9:28:75:b2:53:94:
         53:69:b5:e1:20:31:57:d5:6b:af:c8:14:e3:a0:56:ab:7f:2f:
         02:20:42:2a:98:36:78:f8:1c:e3:ae:9b:2c:e0:de:9f:91:56:
         43:35:90:42:77:1e:76:2b:96:2b:21:6e:d3:bd:e2:f2
-----BEGIN CERTIFICATE-----
MIIBMTCB2aADAgECAgIQijAKBggqhkjOPQQDAjAWMRQwEgYDVQQDDAtzcm9zMnRl
c3RDQTAeFw0yMDAyMTIwNjEyNDdaFw0zMDAyMDkwNjEyNDdaMCAxHjAcBgNVBAMM
FS9zdGRfbXNnc19zdHJpbmdfdG1wMDBZMBMGByqGSM49AgEGCCqGSM49AwEHA0IA
BGRH7x1HIqLJX4l1TJnNkSwqSapSyGsNK7G/O97+iZNYFbbagwsGWtAIwLrbuYT1
ZtjhZxhyU705T9rDGszEA8OjDTALMAkGA1UdEwQCMAAwCgYIKoZIzj0EAwIDRwAw
RAIgNOgUs6M6rFWpKHWyU5RTabXhIDFX1WuvyBTjoFarfy8CIEIqmDZ4+Bzjrpss
4N6fkVZDNZBCdx52K5YrIW7TveLy
-----END CERTIFICATE-----
