Certificate:
    Data:
        Version: 3 (0x2)
        Serial Number: 4235 (0x108b)
        Signature Algorithm: ecdsa-with-SHA256
        Issuer: CN=sros2testCA
        Validity
            Not Before: Feb 12 06:45:41 2020 GMT
            Not After : Feb  9 06:45:41 2030 GMT
        Subject: CN=/sensor_msgs_image_tmp0
        Subject Public Key Info:
            Public Key Algorithm: id-ecPublicKey
                Public-Key: (256 bit)
                pub:
                    04:de:12:36:7a:30:8e:3e:7d:de:5e:01:23:ce:61:
                    e0:5e:f0:bb:f1:12:a3:27:a2:75:91:e6:20:90:16:
                    aa:08:f2:ba:cf:84:48:d3:a0:b1:8f:b3:6e:d4:54:
                    cf:9e:ff:c8:cf:b0:2e:81:f5:97:04:63:4b:28:05:
                    cb:ac:ea:50:26
                ASN1 OID: prime256v1
                NIST CURVE: P-256
        X509v3 extensions:
            X509v3 Basic Constraints: 
                CA:FALSE
    Signature Algorithm: ecdsa-with-SHA256
         30:45:02:20:53:3b:79:a6:f4:39:c8:11:2c:70:1f:0e:15:25:
         9c:a0:39:ab:51:1c:d3:72:e7:4b:03:57:5a:b2:2f:dd:ca:06:
         02:21:00:8a:47:f5:ec:7d:4a:94:49:b7:a6:80:0f:7a:e4:54:
         0c:32:f1:9b:e9:df:2d:90:f2:bd:6a:4e:f2:84:23:17:b4
-----BEGIN CERTIFICATE-----
MIIBNDCB26ADAgECAgIQizAKBggqhkjOPQQDAjAWMRQwEgYDVQQDDAtzcm9zMnRl
c3RDQTAeFw0yMDAyMTIwNjQ1NDFaFw0zMDAyMDkwNjQ1NDFaMCIxIDAeBgNVBAMM
Fy9zZW5zb3JfbXNnc19pbWFnZV90bXAwMFkwEwYHKoZIzj0CAQYIKoZIzj0DAQcD
QgAE3hI2ejCOPn3eXgEjzmHgXvC78RKjJ6J1keYgkBaqCPK6z4RI06Cxj7Nu1FTP
nv/Iz7AugfWXBGNLKAXLrOpQJqMNMAswCQYDVR0TBAIwADAKBggqhkjOPQQDAgNI
ADBFAiBTO3mm9DnIESxwHw4VJZygOatRHNNy50sDV1qyL93KBgIhAIpH9ex9SpRJ
t6aAD3rkVAwy8Zvp3y2Q8r1qTvKEIxe0
-----END CERTIFICATE-----
