Certificate:
    Data:
        Version: 3 (0x2)
        Serial Number: 4236 (0x108c)
        Signature Algorithm: ecdsa-with-SHA256
        Issuer: CN=sros2testCA
        Validity
            Not Before: Feb 12 06:47:07 2020 GMT
            Not After : Feb  9 06:47:07 2030 GMT
        Subject: CN=/sensor_msgs_image_tmp0
        Subject Public Key Info:
            Public Key Algorithm: id-ecPublicKey
                Public-Key: (256 bit)
                pub:
                    04:0c:69:68:d9:ad:91:13:1f:8d:6e:70:78:dc:9c:
                    67:fa:66:dd:eb:a9:5f:77:50:2a:da:43:0b:f8:20:
                    d7:ff:a9:2e:31:a7:68:47:9a:c1:f1:db:ed:9c:3e:
                    c3:28:ae:58:6e:9d:28:c5:ec:ec:cd:ec:e4:ef:69:
                    31:bd:c2:73:27
                ASN1 OID: prime256v1
                NIST CURVE: P-256
        X509v3 extensions:
            X509v3 Basic Constraints: 
                CA:FALSE
    Signature Algorithm: ecdsa-with-SHA256
         30:45:02:20:45:e2:08:a4:eb:a4:ee:71:87:c9:a2:92:53:53:
         34:39:5d:6d:5d:a7:8b:55:b4:2c:3f:7d:5c:af:6d:aa:17:ad:
         02:21:00:9b:bf:81:cf:a1:4d:b4:45:16:b5:6b:3f:f0:83:01:
         10:eb:b6:1b:02:a6:3d:a3:3e:ea:6e:a2:2e:76:47:27:05
-----BEGIN CERTIFICATE-----
MIIBNDCB26ADAgECAgIQjDAKBggqhkjOPQQDAjAWMRQwEgYDVQQDDAtzcm9zMnRl
c3RDQTAeFw0yMDAyMTIwNjQ3MDdaFw0zMDAyMDkwNjQ3MDdaMCIxIDAeBgNVBAMM
Fy9zZW5zb3JfbXNnc19pbWFnZV90bXAwMFkwEwYHKoZIzj0CAQYIKoZIzj0DAQcD
QgAEDGlo2a2REx+NbnB43Jxn+mbd66lfd1Aq2kML+CDX/6kuMadoR5rB8dvtnD7D
KK5Ybp0oxezszezk72kxvcJzJ6MNMAswCQYDVR0TBAIwADAKBggqhkjOPQQDAgNI
ADBFAiBF4gik66TucYfJopJTUzQ5XW1dp4tVtCw/fVyvbaoXrQIhAJu/gc+hTbRF
FrVrP/CDARDrthsCpj2jPupuoi52RycF
-----END CERTIFICATE-----
