Certificate:
    Data:
        Version: 3 (0x2)
        Serial Number: 4237 (0x108d)
        Signature Algorithm: ecdsa-with-SHA256
        Issuer: CN=sros2testCA
        Validity
            Not Before: Feb 12 06:52:12 2020 GMT
            Not After : Feb  9 06:52:12 2030 GMT
        Subject: CN=/sensor_msgs_image_tmp0
        Subject Public Key Info:
            Public Key Algorithm: id-ecPublicKey
                Public-Key: (256 bit)
                pub:
                    04:7f:26:b1:36:54:85:df:47:ad:3b:a7:bf:ac:bb:
                    45:69:59:76:71:f8:71:df:e9:96:6c:f9:03:0e:f9:
                    4f:f9:ed:c4:19:9e:a0:12:c6:11:97:06:78:4d:85:
                    a3:9f:dd:0e:61:39:55:60:b8:3b:81:3f:1d:ef:56:
                    89:6c:b6:c9:48
                ASN1 OID: prime256v1
                NIST CURVE: P-256
        X509v3 extensions:
            X509v3 Basic Constraints: 
                CA:FALSE
    Signature Algorithm: ecdsa-with-SHA256
         30:45:02:20:11:a2:16:96:bb:3f:2b:b3:7e:e8:72:c9:1a:7f:
         ab:37:4b:df:4c:84:20:bd:7e:5e:c8:74:57:3b:fb:48:55:a8:
         02:21:00:fa:b8:92:4c:e0:dc:d6:4b:8e:b9:60:a8:81:f2:bc:
         70:bc:ce:58:39:47:f7:5d:b4:6e:f3:2f:3e:32:1c:70:cd
-----BEGIN CERTIFICATE-----
MIIBNDCB26ADAgECAgIQjTAKBggqhkjOPQQDAjAWMRQwEgYDVQQDDAtzcm9zMnRl
c3RDQTAeFw0yMDAyMTIwNjUyMTJaFw0zMDAyMDkwNjUyMTJaMCIxIDAeBgNVBAMM
Fy9zZW5zb3JfbXNnc19pbWFnZV90bXAwMFkwEwYHKoZIzj0CAQYIKoZIzj0DAQcD
QgAEfyaxNlSF30etO6e/rLtFaVl2cfhx3+mWbPkDDvlP+e3EGZ6gEsYRlwZ4TYWj
n90OYTlVYLg7gT8d71aJbLbJSKMNMAswCQYDVR0TBAIwADAKBggqhkjOPQQDAgNI
ADBFAiARohaWuz8rs37ocskaf6s3S99MhCC9fl7IdFc7+0hVqAIhAPq4kkzg3NZL
jrlgqIHyvHC8zlg5R/ddtG7zLz4yHHDN
-----END CERTIFICATE-----
