Certificate:
    Data:
        Version: 3 (0x2)
        Serial Number: 4238 (0x108e)
        Signature Algorithm: ecdsa-with-SHA256
        Issuer: CN=sros2testCA
        Validity
            Not Before: Feb 12 06:56:01 2020 GMT
            Not After : Feb  9 06:56:01 2030 GMT
        Subject: CN=/sensor_msgs_image_tmp0
        Subject Public Key Info:
            Public Key Algorithm: id-ecPublicKey
                Public-Key: (256 bit)
                pub:
                    04:39:31:89:c1:42:fd:7e:5a:89:0d:2e:e7:4f:5e:
                    9e:79:87:86:ee:b0:de:64:53:f9:67:c5:90:09:08:
                    59:f6:9f:93:85:22:74:1b:3e:18:81:74:4f:ce:79:
                    78:3c:99:e1:b7:5c:5b:9c:38:bf:28:1f:f2:21:ea:
                    f6:83:8f:2b:64
                ASN1 OID: prime256v1
                NIST CURVE: P-256
        X509v3 extensions:
            X509v3 Basic Constraints: 
                CA:FALSE
    Signature Algorithm: ecdsa-with-SHA256
         30:44:02:20:7f:23:eb:7c:c5:ae:2e:e7:02:57:ae:a7:60:3f:
         e4:d3:4c:c2:d5:62:7a:ab:74:14:42:55:70:a0:76:f8:e9:f1:
         02:20:31:aa:21:d8:98:6d:0d:6a:bc:ab:8b:0d:b0:72:ec:59:
         27:4a:4c:9e:9e:c2:e4:79:7e:99:7c:53:4a:6f:31:38
-----BEGIN CERTIFICATE-----
MIIBMzCB26ADAgECAgIQjjAKBggqhkjOPQQDAjAWMRQwEgYDVQQDDAtzcm9zMnRl
c3RDQTAeFw0yMDAyMTIwNjU2MDFaFw0zMDAyMDkwNjU2MDFaMCIxIDAeBgNVBAMM
Fy9zZW5zb3JfbXNnc19pbWFnZV90bXAwMFkwEwYHKoZIzj0CAQYIKoZIzj0DAQcD
QgAEOTGJwUL9flqJDS7nT16eeYeG7rDeZFP5Z8WQCQhZ9p+ThSJ0Gz4YgXRPznl4
PJnht1xbnDi/KB/yIer2g48rZKMNMAswCQYDVR0TBAIwADAKBggqhkjOPQQDAgNH
ADBEAiB/I+t8xa4u5wJXrqdgP+TTTMLVYnqrdBRCVXCgdvjp8QIgMaoh2JhtDWq8
q4sNsHLsWSdKTJ6ewuR5fpl8U0pvMTg=
-----END CERTIFICATE-----
