Certificate:
    Data:
        Version: 3 (0x2)
        Serial Number: 4239 (0x108f)
        Signature Algorithm: ecdsa-with-SHA256
        Issuer: CN=sros2testCA
        Validity
            Not Before: Feb 12 06:58:25 2020 GMT
            Not After : Feb  9 06:58:25 2030 GMT
        Subject: CN=/sensor_msgs_image_tmp0
        Subject Public Key Info:
            Public Key Algorithm: id-ecPublicKey
                Public-Key: (256 bit)
                pub:
                    04:d9:97:8f:23:eb:f1:0e:ec:f1:29:71:40:ff:33:
                    44:28:90:db:b1:25:da:99:9b:c1:da:96:91:db:c3:
                    b1:36:94:15:7b:6d:87:d4:3f:72:fd:af:b6:4c:70:
                    13:c0:10:05:08:d2:94:67:83:d3:6b:0e:ea:c4:3f:
                    47:66:6b:8d:d4
                ASN1 OID: prime256v1
                NIST CURVE: P-256
        X509v3 extensions:
            X509v3 Basic Constraints: 
                CA:FALSE
    Signature Algorithm: ecdsa-with-SHA256
         30:46:02:21:00:ee:e4:81:eb:7a:96:65:00:75:cd:e6:20:ba:
         b7:48:d6:33:20:fd:eb:5b:42:17:ec:08:67:c2:ce:2d:1c:c4:
         ef:02:21:00:eb:c7:ee:dd:a2:4c:4e:8b:40:78:1b:62:4c:6c:
         01:18:19:5a:fe:43:35:8b:7b:72:be:d2:d7:21:86:62:f4:fc
-----BEGIN CERTIFICATE-----
MIIBNTCB26ADAgECAgIQjzAKBggqhkjOPQQDAjAWMRQwEgYDVQQDDAtzcm9zMnRl
c3RDQTAeFw0yMDAyMTIwNjU4MjVaFw0zMDAyMDkwNjU4MjVaMCIxIDAeBgNVBAMM
Fy9zZW5zb3JfbXNnc19pbWFnZV90bXAwMFkwEwYHKoZIzj0CAQYIKoZIzj0DAQcD
QgAE2ZePI+vxDuzxKXFA/zNEKJDbsSXamZvB2paR28OxNpQVe22H1D9y/a+2THAT
wBAFCNKUZ4PTaw7qxD9HZmuN1KMNMAswCQYDVR0TBAIwADAKBggqhkjOPQQDAgNJ
ADBGAiEA7uSB63qWZQB1zeYgurdI1jMg/etbQhfsCGfCzi0cxO8CIQDrx+7dokxO
i0B4G2JMbAEYGVr+QzWLe3K+0tchhmL0/A==
-----END CERTIFICATE-----
