Certificate:
    Data:
        Version: 3 (0x2)
        Serial Number: 4240 (0x1090)
        Signature Algorithm: ecdsa-with-SHA256
        Issuer: CN=sros2testCA
        Validity
            Not Before: Feb 12 07:00:43 2020 GMT
            Not After : Feb  9 07:00:43 2030 GMT
        Subject: CN=/sensor_msgs_image_tmp0
        Subject Public Key Info:
            Public Key Algorithm: id-ecPublicKey
                Public-Key: (256 bit)
                pub:
                    04:eb:c8:b7:51:d8:bc:34:f1:c3:62:dc:91:e9:2d:
                    a8:bc:08:97:16:80:3f:b0:66:cc:03:9f:16:cd:82:
                    fe:1b:22:36:2c:64:5d:51:83:5f:f1:3b:5c:3e:f9:
                    98:66:ab:b4:ba:71:72:8b:3c:2c:de:0c:9c:a0:80:
                    62:f3:fe:03:60
                ASN1 OID: prime256v1
                NIST CURVE: P-256
        X509v3 extensions:
            X509v3 Basic Constraints: 
                CA:FALSE
    Signature Algorithm: ecdsa-with-SHA256
         30:46:02:21:00:90:f6:ea:4a:8f:e1:9a:94:05:b4:8d:19:c0:
         f0:56:64:1d:29:93:3c:47:e0:c3:10:86:54:66:a2:18:b9:25:
         04:02:21:00:ae:24:e6:7b:b9:99:4e:64:49:1a:9f:06:07:61:
         ad:70:a2:8b:e8:96:e6:0f:ab:98:c3:d7:e1:68:93:c2:b2:72
-----BEGIN CERTIFICATE-----
MIIBNTCB26ADAgECAgIQkDAKBggqhkjOPQQDAjAWMRQwEgYDVQQDDAtzcm9zMnRl
c3RDQTAeFw0yMDAyMTIwNzAwNDNaFw0zMDAyMDkwNzAwNDNaMCIxIDAeBgNVBAMM
Fy9zZW5zb3JfbXNnc19pbWFnZV90bXAwMFkwEwYHKoZIzj0CAQYIKoZIzj0DAQcD
QgAE68i3Udi8NPHDYtyR6S2ovAiXFoA/sGbMA58WzYL+GyI2LGRdUYNf8TtcPvmY
Zqu0unFyizws3gycoIBi8/4DYKMNMAswCQYDVR0TBAIwADAKBggqhkjOPQQDAgNJ
ADBGAiEAkPbqSo/hmpQFtI0ZwPBWZB0pkzxH4MMQhlRmohi5JQQCIQCuJOZ7uZlO
ZEkanwYHYa1woovoluYPq5jD1+Fok8Kycg==
-----END CERTIFICATE-----
