Certificate:
    Data:
        Version: 3 (0x2)
        Serial Number: 4241 (0x1091)
        Signature Algorithm: ecdsa-with-SHA256
        Issuer: CN=sros2testCA
        Validity
            Not Before: Feb 12 07:34:53 2020 GMT
            Not After : Feb  9 07:34:53 2030 GMT
        Subject: CN=/sensor_msgs_image_tmp0
        Subject Public Key Info:
            Public Key Algorithm: id-ecPublicKey
                Public-Key: (256 bit)
                pub:
                    04:e7:f0:4e:06:d3:0f:1b:df:de:2d:97:ac:39:01:
                    95:8d:c0:be:ce:3c:55:44:ab:0a:97:6c:2d:00:d2:
                    41:e2:f8:fc:e8:32:5e:ee:f4:8a:2b:19:d3:e3:c1:
                    36:2b:9a:7e:4b:ea:ed:8d:70:5c:32:c9:35:ed:ed:
                    cf:3e:25:ee:54
                ASN1 OID: prime256v1
                NIST CURVE: P-256
        X509v3 extensions:
            X509v3 Basic Constraints: 
                CA:FALSE
    Signature Algorithm: ecdsa-with-SHA256
         30:45:02:20:7f:cd:41:df:2b:51:85:64:d8:d0:a0:51:64:83:
         f7:3f:04:ee:b0:44:9b:38:a7:6c:d5:bb:0a:ea:3b:35:16:91:
         02:21:00:9b:fa:e8:db:6b:28:2e:70:2e:94:a8:5c:39:02:9f:
         2f:ad:a4:34:fb:14:64:d1:7b:6a:89:91:fa:f9:b2:92:25
-----BEGIN CERTIFICATE-----
MIIBNDCB26ADAgECAgIQkTAKBggqhkjOPQQDAjAWMRQwEgYDVQQDDAtzcm9zMnRl
c3RDQTAeFw0yMDAyMTIwNzM0NTNaFw0zMDAyMDkwNzM0NTNaMCIxIDAeBgNVBAMM
Fy9zZW5zb3JfbXNnc19pbWFnZV90bXAwMFkwEwYHKoZIzj0CAQYIKoZIzj0DAQcD
QgAE5/BOBtMPG9/eLZesOQGVjcC+zjxVRKsKl2wtANJB4vj86DJe7vSKKxnT48E2
K5p+S+rtjXBcMsk17e3PPiXuVKMNMAswCQYDVR0TBAIwADAKBggqhkjOPQQDAgNI
ADBFAiB/zUHfK1GFZNjQoFFkg/c/BO6wRJs4p2zVuwrqOzUWkQIhAJv66NtrKC5w
LpSoXDkCny+tpDT7FGTRe2qJkfr5spIl
-----END CERTIFICATE-----
