Certificate:
    Data:
        Version: 3 (0x2)
        Serial Number: 4242 (0x1092)
        Signature Algorithm: ecdsa-with-SHA256
        Issuer: CN=sros2testCA
        Validity
            Not Before: Feb 12 09:43:34 2020 GMT
            Not After : Feb  9 09:43:34 2030 GMT
        Subject: CN=/sensor_msgs_image_tmp0
        Subject Public Key Info:
            Public Key Algorithm: id-ecPublicKey
                Public-Key: (256 bit)
                pub:
                    04:e7:6b:5f:29:ac:44:fc:6f:4f:0b:87:92:19:46:
                    2f:cd:79:fa:2f:87:0c:4c:eb:5c:5c:9c:f9:4d:5e:
                    c0:03:2a:4c:2c:13:21:44:c8:c5:1e:59:00:4e:13:
                    11:f7:b4:77:44:f4:71:dc:1d:b6:86:b8:ff:66:4e:
                    7c:a7:0b:7b:49
                ASN1 OID: prime256v1
                NIST CURVE: P-256
        X509v3 extensions:
            X509v3 Basic Constraints: 
                CA:FALSE
    Signature Algorithm: ecdsa-with-SHA256
         30:44:02:20:48:d3:57:5b:e4:d3:f8:f6:1e:bd:69:90:b4:3d:
         91:f4:8b:f5:8c:14:2e:07:0a:e9:3e:18:ee:da:64:a2:68:d6:
         02:20:63:78:da:17:fe:4d:ec:dc:3b:d2:aa:2a:61:d9:e9:1e:
         76:e8:93:7e:1d:39:2c:33:55:66:d2:40:22:e4:11:0d
-----BEGIN CERTIFICATE-----
MIIBMzCB26ADAgECAgIQkjAKBggqhkjOPQQDAjAWMRQwEgYDVQQDDAtzcm9zMnRl
c3RDQTAeFw0yMDAyMTIwOTQzMzRaFw0zMDAyMDkwOTQzMzRaMCIxIDAeBgNVBAMM
Fy9zZW5zb3JfbXNnc19pbWFnZV90bXAwMFkwEwYHKoZIzj0CAQYIKoZIzj0DAQcD
QgAE52tfKaxE/G9PC4eSGUYvzXn6L4cMTOtcXJz5TV7AAypMLBMhRMjFHlkAThMR
97R3RPRx3B22hrj/Zk58pwt7SaMNMAswCQYDVR0TBAIwADAKBggqhkjOPQQDAgNH
ADBEAiBI01db5NP49h69aZC0PZH0i/WMFC4HCuk+GO7aZKJo1gIgY3jaF/5N7Nw7
0qoqYdnpHnbok34dOSwzVWbSQCLkEQ0=
-----END CERTIFICATE-----
