Certificate:
    Data:
        Version: 3 (0x2)
        Serial Number: 4243 (0x1093)
        Signature Algorithm: ecdsa-with-SHA256
        Issuer: CN=sros2testCA
        Validity
            Not Before: Feb 12 09:46:13 2020 GMT
            Not After : Feb  9 09:46:13 2030 GMT
        Subject: CN=/sensor_msgs_image_tmp0
        Subject Public Key Info:
            Public Key Algorithm: id-ecPublicKey
                Public-Key: (256 bit)
                pub:
                    04:93:50:ea:fa:05:77:30:e3:81:87:00:e5:96:4f:
                    28:c9:fc:9d:96:a2:a4:9c:d2:3d:d3:59:87:04:b5:
                    0f:ba:9b:83:08:93:ea:4b:61:ea:d4:60:8b:51:ca:
                    a7:71:80:8c:a6:a6:b5:2d:af:e9:e4:03:ba:32:f6:
                    85:c3:25:c0:0e
                ASN1 OID: prime256v1
                NIST CURVE: P-256
        X509v3 extensions:
            X509v3 Basic Constraints: 
                CA:FALSE
    Signature Algorithm: ecdsa-with-SHA256
         30:45:02:21:00:9c:27:59:3f:8a:12:e7:23:3c:29:09:47:0e:
         28:04:d0:2b:dd:32:2d:70:33:c9:67:e0:d3:ab:44:84:e7:15:
         35:02:20:24:0e:c4:0b:e8:74:9d:f9:ff:13:6f:b6:1d:3a:23:
         a8:66:33:82:ff:d6:7f:6e:16:09:6b:2d:ae:f7:47:ea:e1
-----BEGIN CERTIFICATE-----
MIIBNDCB26ADAgECAgIQkzAKBggqhkjOPQQDAjAWMRQwEgYDVQQDDAtzcm9zMnRl
c3RDQTAeFw0yMDAyMTIwOTQ2MTNaFw0zMDAyMDkwOTQ2MTNaMCIxIDAeBgNVBAMM
Fy9zZW5zb3JfbXNnc19pbWFnZV90bXAwMFkwEwYHKoZIzj0CAQYIKoZIzj0DAQcD
QgAEk1Dq+gV3MOOBhwDllk8oyfydlqKknNI901mHBLUPupuDCJPqS2Hq1GCLUcqn
cYCMpqa1La/p5AO6MvaFwyXADqMNMAswCQYDVR0TBAIwADAKBggqhkjOPQQDAgNI
ADBFAiEAnCdZP4oS5yM8KQlHDigE0CvdMi1wM8ln4NOrRITnFTUCICQOxAvodJ35
/xNvth06I6hmM4L/1n9uFglrLa73R+rh
-----END CERTIFICATE-----
