Certificate:
    Data:
        Version: 3 (0x2)
        Serial Number: 4244 (0x1094)
        Signature Algorithm: ecdsa-with-SHA256
        Issuer: CN=sros2testCA
        Validity
            Not Before: Feb 12 09:49:05 2020 GMT
            Not After : Feb  9 09:49:05 2030 GMT
        Subject: CN=/sensor_msgs_image_tmp0
        Subject Public Key Info:
            Public Key Algorithm: id-ecPublicKey
                Public-Key: (256 bit)
                pub:
                    04:0a:f8:ae:5e:11:6f:23:59:19:93:bb:a9:d6:5e:
                    03:b2:fd:b3:53:94:c1:f1:40:a3:e5:a3:f2:5b:d1:
                    a2:18:47:c8:89:bf:f2:fb:26:09:b1:48:dc:2a:6e:
                    10:c2:a8:72:17:b1:25:16:99:36:39:97:55:79:6f:
                    15:f5:5d:5f:2a
                ASN1 OID: prime256v1
                NIST CURVE: P-256
        X509v3 extensions:
            X509v3 Basic Constraints: 
                CA:FALSE
    Signature Algorithm: ecdsa-with-SHA256
         30:45:02:21:00:da:98:1c:14:8b:23:01:1d:6b:d0:3f:9c:04:
         42:26:6a:6e:42:e4:bf:b1:1d:d1:ce:04:a7:e9:3b:0c:8a:53:
         09:02:20:45:dc:af:27:59:5c:18:c3:54:d2:32:ad:0b:28:d1:
         e7:e6:c0:7b:68:0e:5e:fe:69:a3:5c:ca:dd:3f:c3:8d:5d
-----BEGIN CERTIFICATE-----
MIIBNDCB26ADAgECAgIQlDAKBggqhkjOPQQDAjAWMRQwEgYDVQQDDAtzcm9zMnRl
c3RDQTAeFw0yMDAyMTIwOTQ5MDVaFw0zMDAyMDkwOTQ5MDVaMCIxIDAeBgNVBAMM
Fy9zZW5zb3JfbXNnc19pbWFnZV90bXAwMFkwEwYHKoZIzj0CAQYIKoZIzj0DAQcD
QgAECviuXhFvI1kZk7up1l4Dsv2zU5TB8UCj5aPyW9GiGEfIib/y+yYJsUjcKm4Q
wqhyF7ElFpk2OZdVeW8V9V1fKqMNMAswCQYDVR0TBAIwADAKBggqhkjOPQQDAgNI
ADBFAiEA2pgcFIsjAR1r0D+cBEImam5C5L+xHdHOBKfpOwyKUwkCIEXcrydZXBjD
VNIyrQso0efmwHtoDl7+aaNcyt0/w41d
-----END CERTIFICATE-----
