Certificate:
    Data:
        Version: 3 (0x2)
        Serial Number: 4245 (0x1095)
        Signature Algorithm: ecdsa-with-SHA256
        Issuer: CN=sros2testCA
        Validity
            Not Before: Feb 12 09:52:26 2020 GMT
            Not After : Feb  9 09:52:26 2030 GMT
        Subject: CN=/sensor_msgs_image_tmp0
        Subject Public Key Info:
            Public Key Algorithm: id-ecPublicKey
                Public-Key: (256 bit)
                pub:
                    04:c1:ec:65:e3:38:9a:ba:ac:1d:33:3a:52:68:0d:
                    d3:03:d0:a8:39:0c:8a:89:de:4e:e0:e4:37:97:15:
                    27:fa:ac:7a:db:ed:c7:ba:b9:8a:2d:23:44:0d:21:
                    80:7e:a8:ec:f3:54:de:85:35:f2:df:d0:58:50:d2:
                    2b:d1:4d:db:ca
                ASN1 OID: prime256v1
                NIST CURVE: P-256
        X509v3 extensions:
            X509v3 Basic Constraints: 
                CA:FALSE
    Signature Algorithm: ecdsa-with-SHA256
         30:44:02:20:49:b1:13:de:19:5b:fe:29:fd:f9:b5:7b:27:87:
         8b:8e:6d:2d:9f:72:08:06:cf:3e:fc:19:03:6b:a3:97:e7:5b:
         02:20:14:27:7b:8a:6c:24:ad:2e:ef:23:34:90:84:fd:be:69:
         04:4c:0f:8b:1b:8a:dd:95:00:ae:db:dc:64:b0:97:f5
-----BEGIN CERTIFICATE-----
MIIBMzCB26ADAgECAgIQlTAKBggqhkjOPQQDAjAWMRQwEgYDVQQDDAtzcm9zMnRl
c3RDQTAeFw0yMDAyMTIwOTUyMjZaFw0zMDAyMDkwOTUyMjZaMCIxIDAeBgNVBAMM
Fy9zZW5zb3JfbXNnc19pbWFnZV90bXAwMFkwEwYHKoZIzj0CAQYIKoZIzj0DAQcD
QgAEwexl4ziauqwdMzpSaA3TA9CoOQyKid5O4OQ3lxUn+qx62+3HurmKLSNEDSGA
fqjs81TehTXy39BYUNIr0U3byqMNMAswCQYDVR0TBAIwADAKBggqhkjOPQQDAgNH
ADBEAiBJsRPeGVv+Kf35tXsnh4uObS2fcggGzz78GQNro5fnWwIgFCd7imwkrS7v
IzSQhP2+aQRMD4sbit2VAK7b3GSwl/U=
-----END CERTIFICATE-----
