Certificate:
    Data:
        Version: 3 (0x2)
        Serial Number: 4246 (0x1096)
        Signature Algorithm: ecdsa-with-SHA256
        Issuer: CN=sros2testCA
        Validity
            Not Before: Feb 12 09:54:41 2020 GMT
            Not After : Feb  9 09:54:41 2030 GMT
        Subject: CN=/sensor_msgs_image_tmp0
        Subject Public Key Info:
            Public Key Algorithm: id-ecPublicKey
                Public-Key: (256 bit)
                pub:
                    04:55:74:eb:83:fe:8e:60:4d:99:1e:ff:6f:6a:0d:
                    e9:52:f3:92:b5:6b:c0:b5:8a:ac:a0:f1:91:82:9f:
                    78:67:ff:5e:3c:dd:53:75:10:9d:6b:d0:1e:06:36:
                    49:8a:08:99:21:c3:bb:2e:b1:da:93:53:11:e0:3a:
                    02:42:4c:3f:b1
                ASN1 OID: prime256v1
                NIST CURVE: P-256
        X509v3 extensions:
            X509v3 Basic Constraints: 
                CA:FALSE
    Signature Algorithm: ecdsa-with-SHA256
         30:46:02:21:00:a3:bf:14:29:ae:1f:2a:d7:13:20:86:b2:96:
         bf:bb:be:9f:3f:00:37:8d:d7:56:17:31:e5:96:88:56:4b:9e:
         e9:02:21:00:c9:42:bf:b4:7f:ac:75:59:1f:12:2f:41:1b:cd:
         42:36:c2:ed:b1:74:c0:6e:df:83:ce:96:a8:ea:69:95:a3:65
-----BEGIN CERTIFICATE-----
MIIBNTCB26ADAgECAgIQljAKBggqhkjOPQQDAjAWMRQwEgYDVQQDDAtzcm9zMnRl
c3RDQTAeFw0yMDAyMTIwOTU0NDFaFw0zMDAyMDkwOTU0NDFaMCIxIDAeBgNVBAMM
Fy9zZW5zb3JfbXNnc19pbWFnZV90bXAwMFkwEwYHKoZIzj0CAQYIKoZIzj0DAQcD
QgAEVXTrg/6OYE2ZHv9vag3pUvOStWvAtYqsoPGRgp94Z/9ePN1TdRCda9AeBjZJ
igiZIcO7LrHak1MR4DoCQkw/saMNMAswCQYDVR0TBAIwADAKBggqhkjOPQQDAgNJ
ADBGAiEAo78UKa4fKtcTIIaylr+7vp8/ADeN11YXMeWWiFZLnukCIQDJQr+0f6x1
WR8SL0EbzUI2wu2xdMBu34POlqjqaZWjZQ==
-----END CERTIFICATE-----
