Certificate:
    Data:
        Version: 3 (0x2)
        Serial Number: 4247 (0x1097)
        Signature Algorithm: ecdsa-with-SHA256
        Issuer: CN=sros2testCA
        Validity
            Not Before: Feb 12 09:57:02 2020 GMT
            Not After : Feb  9 09:57:02 2030 GMT
        Subject: CN=/sensor_msgs_image_tmp0
        Subject Public Key Info:
            Public Key Algorithm: id-ecPublicKey
                Public-Key: (256 bit)
                pub:
                    04:8b:db:9c:ce:50:08:c3:f9:73:3b:76:91:28:52:
                    34:82:fe:25:20:bf:e4:25:55:b1:3a:62:66:83:07:
                    ce:5c:2d:1c:e3:8f:5b:ec:02:c9:15:7f:d4:ea:5f:
                    b9:73:ff:7b:9a:1f:4a:b9:c8:fe:6d:03:52:f5:24:
                    10:d1:29:f2:c3
                ASN1 OID: prime256v1
                NIST CURVE: P-256
        X509v3 extensions:
            X509v3 Basic Constraints: 
                CA:FALSE
    Signature Algorithm: ecdsa-with-SHA256
         30:45:02:20:31:5f:ea:ac:07:c9:d1:4b:e9:09:96:bb:06:ee:
         c6:0e:d6:45:c0:d6:c3:31:22:1b:31:1d:79:07:46:fb:67:bf:
         02:21:00:87:b6:84:1b:7b:3b:22:fd:96:8e:02:b2:16:40:a2:
         9a:54:4a:72:b3:6a:7b:12:3b:1e:19:ef:52:57:0f:4e:19
-----BEGIN CERTIFICATE-----
MIIBNDCB26ADAgECAgIQlzAKBggqhkjOPQQDAjAWMRQwEgYDVQQDDAtzcm9zMnRl
c3RDQTAeFw0yMDAyMTIwOTU3MDJaFw0zMDAyMDkwOTU3MDJaMCIxIDAeBgNVBAMM
Fy9zZW5zb3JfbXNnc19pbWFnZV90bXAwMFkwEwYHKoZIzj0CAQYIKoZIzj0DAQcD
QgAEi9uczlAIw/lzO3aRKFI0gv4lIL/kJVWxOmJmgwfOXC0c449b7ALJFX/U6l+5
c/97mh9Kucj+bQNS9SQQ0Snyw6MNMAswCQYDVR0TBAIwADAKBggqhkjOPQQDAgNI
ADBFAiAxX+qsB8nRS+kJlrsG7sYO1kXA1sMxIhsxHXkHRvtnvwIhAIe2hBt7OyL9
lo4CshZAoppUSnKzansSOx4Z71JXD04Z
-----END CERTIFICATE-----
