Certificate:
    Data:
        Version: 3 (0x2)
        Serial Number: 4248 (0x1098)
        Signature Algorithm: ecdsa-with-SHA256
        Issuer: CN=sros2testCA
        Validity
            Not Before: Feb 13 07:20:10 2020 GMT
            Not After : Feb 10 07:20:10 2030 GMT
        Subject: CN=/performance_test0
        Subject Public Key Info:
            Public Key Algorithm: id-ecPublicKey
                Public-Key: (256 bit)
                pub:
                    04:e3:3f:81:c1:90:43:41:ed:0a:6a:cf:83:38:8c:
                    09:b6:5c:2d:00:f3:3a:8b:52:41:ca:44:c4:4f:3d:
                    65:89:f6:2b:3b:5a:82:3d:1b:56:f2:b3:d5:29:a0:
                    3b:ba:9c:71:0d:7d:6d:38:10:00:71:ed:1c:2a:03:
                    25:aa:ce:7a:29
                ASN1 OID: prime256v1
                NIST CURVE: P-256
        X509v3 extensions:
            X509v3 Basic Constraints: 
                CA:FALSE
    Signature Algorithm: ecdsa-with-SHA256
         30:45:02:21:00:d9:fc:e7:40:b3:20:2a:74:c7:cf:32:ac:26:
         2d:7e:3d:5c:61:9f:c8:28:19:6d:83:26:61:e6:04:43:9d:42:
         3c:02:20:60:a5:a7:ec:ac:38:ca:41:08:23:f1:6d:ff:08:3e:
         70:9e:43:8e:b0:6b:4a:36:e2:59:ff:25:45:c5:e3:15:eb
-----BEGIN CERTIFICATE-----
MIIBLzCB1qADAgECAgIQmDAKBggqhkjOPQQDAjAWMRQwEgYDVQQDDAtzcm9zMnRl
c3RDQTAeFw0yMDAyMTMwNzIwMTBaFw0zMDAyMTAwNzIwMTBaMB0xGzAZBgNVBAMM
Ei9wZXJmb3JtYW5jZV90ZXN0MDBZMBMGByqGSM49AgEGCCqGSM49AwEHA0IABOM/
gcGQQ0HtCmrPgziMCbZcLQDzOotSQcpExE89ZYn2Kztagj0bVvKz1SmgO7qccQ19
bTgQAHHtHCoDJarOeimjDTALMAkGA1UdEwQCMAAwCgYIKoZIzj0EAwIDSAAwRQIh
ANn850CzICp0x88yrCYtfj1cYZ/IKBltgyZh5gRDnUI8AiBgpafsrDjKQQgj8W3/
CD5wnkOOsGtKNuJZ/yVFxeMV6w==
-----END CERTIFICATE-----
