Certificate:
    Data:
        Version: 3 (0x2)
        Serial Number: 4249 (0x1099)
        Signature Algorithm: ecdsa-with-SHA256
        Issuer: CN=sros2testCA
        Validity
            Not Before: Feb 13 07:20:20 2020 GMT
            Not After : Feb 10 07:20:20 2030 GMT
        Subject: CN=/performance_test1
        Subject Public Key Info:
            Public Key Algorithm: id-ecPublicKey
                Public-Key: (256 bit)
                pub:
                    04:fb:46:62:f2:81:5f:ff:01:3b:08:0f:ae:e4:6d:
                    38:82:bf:06:a0:00:35:8e:a2:76:37:62:dc:89:b0:
                    d8:ac:b1:a2:ab:87:60:af:e8:c1:8d:6e:5b:5a:5b:
                    5b:cc:bd:e7:58:cc:fc:1e:2b:7e:9f:ae:68:f5:f7:
                    c7:1d:9f:b7:da
                ASN1 OID: prime256v1
                NIST CURVE: P-256
        X509v3 extensions:
            X509v3 Basic Constraints: 
                CA:FALSE
    Signature Algorithm: ecdsa-with-SHA256
         30:46:02:21:00:80:0b:59:cb:2d:cb:34:86:ba:1b:c3:46:fa:
         ec:b4:33:5a:16:01:6e:a8:4b:a0:39:39:bd:11:b2:c4:61:34:
         3a:02:21:00:c1:12:18:28:f8:32:2e:2f:3c:95:33:a1:d9:59:
         04:0c:f3:9d:90:ac:95:20:60:77:9c:51:97:25:6f:21:51:7f
-----BEGIN CERTIFICATE-----
MIIBMDCB1qADAgECAgIQmTAKBggqhkjOPQQDAjAWMRQwEgYDVQQDDAtzcm9zMnRl
c3RDQTAeFw0yMDAyMTMwNzIwMjBaFw0zMDAyMTAwNzIwMjBaMB0xGzAZBgNVBAMM
Ei9wZXJmb3JtYW5jZV90ZXN0MTBZMBMGByqGSM49AgEGCCqGSM49AwEHA0IABPtG
YvKBX/8BOwgPruRtOIK/BqAANY6idjdi3Imw2KyxoquHYK/owY1uW1pbW8y951jM
/B4rfp+uaPX3xx2ft9qjDTALMAkGA1UdEwQCMAAwCgYIKoZIzj0EAwIDSQAwRgIh
AIALWcstyzSGuhvDRvrstDNaFgFuqEugOTm9EbLEYTQ6AiEAwRIYKPgyLi88lTOh
2VkEDPOdkKyVIGB3nFGXJW8hUX8=
-----END CERTIFICATE-----
