Certificate:
    Data:
        Version: 3 (0x2)
        Serial Number: 4250 (0x109a)
        Signature Algorithm: ecdsa-with-SHA256
        Issuer: CN=sros2testCA
        Validity
            Not Before: Feb 13 07:20:30 2020 GMT
            Not After : Feb 10 07:20:30 2030 GMT
        Subject: CN=/performance_test2
        Subject Public Key Info:
            Public Key Algorithm: id-ecPublicKey
                Public-Key: (256 bit)
                pub:
                    04:ff:32:27:78:9f:3a:73:34:ec:fb:50:8d:d8:ee:
                    cd:60:e0:a2:05:b1:30:c6:7b:84:f1:30:25:09:91:
                    87:86:2c:c0:d7:af:7a:64:dd:58:a3:ee:39:09:c1:
                    db:47:27:02:24:a1:7f:23:95:ce:8e:62:d6:a8:c9:
                    03:26:7a:9b:cd
                ASN1 OID: prime256v1
                NIST CURVE: P-256
        X509v3 extensions:
            X509v3 Basic Constraints: 
                CA:FALSE
    Signature Algorithm: ecdsa-with-SHA256
         30:45:02:21:00:fb:0e:ce:15:b7:1a:6c:2f:96:fb:90:60:33:
         2c:27:23:18:e1:e9:ad:95:4c:0c:f0:20:0f:49:2d:ce:48:2d:
         a8:02:20:42:a2:88:89:b2:47:4c:56:bb:ae:d5:c8:73:8d:9c:
         e2:e7:50:24:04:e4:f1:f3:71:ca:02:6c:98:ec:02:72:92
-----BEGIN CERTIFICATE-----
MIIBLzCB1qADAgECAgIQmjAKBggqhkjOPQQDAjAWMRQwEgYDVQQDDAtzcm9zMnRl
c3RDQTAeFw0yMDAyMTMwNzIwMzBaFw0zMDAyMTAwNzIwMzBaMB0xGzAZBgNVBAMM
Ei9wZXJmb3JtYW5jZV90ZXN0MjBZMBMGByqGSM49AgEGCCqGSM49AwEHA0IABP8y
J3ifOnM07PtQjdjuzWDgogWxMMZ7hPEwJQmRh4YswNevemTdWKPuOQnB20cnAiSh
fyOVzo5i1qjJAyZ6m82jDTALMAkGA1UdEwQCMAAwCgYIKoZIzj0EAwIDSAAwRQIh
APsOzhW3GmwvlvuQYDMsJyMY4emtlUwM8CAPSS3OSC2oAiBCooiJskdMVruu1chz
jZzi51AkBOTx83HKAmyY7AJykg==
-----END CERTIFICATE-----
