Certificate:
    Data:
        Version: 3 (0x2)
        Serial Number: 4251 (0x109b)
        Signature Algorithm: ecdsa-with-SHA256
        Issuer: CN=sros2testCA
        Validity
            Not Before: Feb 13 07:20:39 2020 GMT
            Not After : Feb 10 07:20:39 2030 GMT
        Subject: CN=/performance_test3
        Subject Public Key Info:
            Public Key Algorithm: id-ecPublicKey
                Public-Key: (256 bit)
                pub:
                    04:d9:a8:eb:bc:e0:47:83:45:89:b3:e2:5b:22:3e:
                    15:7d:c4:99:f6:6f:61:18:ff:95:64:a4:c6:4d:cd:
                    4a:c6:64:9d:b6:aa:b4:51:d7:62:02:83:cd:97:e0:
                    ec:33:d5:31:07:0f:71:15:cd:0a:31:3a:aa:62:61:
                    df:59:13:13:03
                ASN1 OID: prime256v1
                NIST CURVE: P-256
        X509v3 extensions:
            X509v3 Basic Constraints: 
                CA:FALSE
    Signature Algorithm: ecdsa-with-SHA256
         30:45:02:20:6e:b3:5f:2d:0f:71:d9:ba:de:f9:95:b7:a9:57:
         21:76:6c:47:40:b0:e8:2b:12:b0:a1:1f:36:74:95:35:25:98:
         02:21:00:8f:14:5b:73:79:9d:66:20:7e:05:f7:0b:26:c3:9a:
         d5:83:5d:e7:97:cd:16:b5:42:a2:c7:76:e7:35:c4:5f:79
-----BEGIN CERTIFICATE-----
MIIBLzCB1qADAgECAgIQmzAKBggqhkjOPQQDAjAWMRQwEgYDVQQDDAtzcm9zMnRl
c3RDQTAeFw0yMDAyMTMwNzIwMzlaFw0zMDAyMTAwNzIwMzlaMB0xGzAZBgNVBAMM
Ei9wZXJmb3JtYW5jZV90ZXN0MzBZMBMGByqGSM49AgEGCCqGSM49AwEHA0IABNmo
67zgR4NFibPiWyI+FX3EmfZvYRj/lWSkxk3NSsZknbaqtFHXYgKDzZfg7DPVMQcP
cRXNCjE6qmJh31kTEwOjDTALMAkGA1UdEwQCMAAwCgYIKoZIzj0EAwIDSAAwRQIg
brNfLQ9x2bre+ZW3qVchdmxHQLDoKxKwoR82dJU1JZgCIQCPFFtzeZ1mIH4F9wsm
w5rVg13nl80WtUKix3bnNcRfeQ==
-----END CERTIFICATE-----
