Certificate:
    Data:
        Version: 3 (0x2)
        Serial Number: 4252 (0x109c)
        Signature Algorithm: ecdsa-with-SHA256
        Issuer: CN=sros2testCA
        Validity
            Not Before: Feb 13 07:20:49 2020 GMT
            Not After : Feb 10 07:20:49 2030 GMT
        Subject: CN=/performance_test4
        Subject Public Key Info:
            Public Key Algorithm: id-ecPublicKey
                Public-Key: (256 bit)
                pub:
                    04:af:4b:f3:b8:58:c2:6f:18:1b:a8:52:76:9b:4e:
                    27:15:9d:d2:0a:6b:14:40:05:78:12:4c:a5:a9:d1:
                    fc:fc:20:c0:fc:9a:ab:65:11:d0:38:23:5a:c6:66:
                    02:92:38:b1:67:08:99:63:cf:40:d9:d5:1c:e1:8e:
                    43:25:b9:a6:70
                ASN1 OID: prime256v1
                NIST CURVE: P-256
        X509v3 extensions:
            X509v3 Basic Constraints: 
                CA:FALSE
    Signature Algorithm: ecdsa-with-SHA256
         30:45:02:20:2f:5c:cb:c7:15:b9:e9:75:a0:a5:f7:aa:75:34:
         d7:54:8c:05:88:97:46:75:05:0b:b8:72:9f:d4:d4:bb:7c:90:
         02:21:00:be:27:7d:da:ba:2e:f1:8f:60:23:e4:37:c7:24:67:
         2d:12:fa:d3:b2:97:41:6e:5f:c8:0c:da:bc:41:e5:57:90
-----BEGIN CERTIFICATE-----
MIIBLzCB1qADAgECAgIQnDAKBggqhkjOPQQDAjAWMRQwEgYDVQQDDAtzcm9zMnRl
c3RDQTAeFw0yMDAyMTMwNzIwNDlaFw0zMDAyMTAwNzIwNDlaMB0xGzAZBgNVBAMM
Ei9wZXJmb3JtYW5jZV90ZXN0NDBZMBMGByqGSM49AgEGCCqGSM49AwEHA0IABK9L
87hYwm8YG6hSdptOJxWd0gprFEAFeBJMpanR/PwgwPyaq2UR0DgjWsZmApI4sWcI
mWPPQNnVHOGOQyW5pnCjDTALMAkGA1UdEwQCMAAwCgYIKoZIzj0EAwIDSAAwRQIg
L1zLxxW56XWgpfeqdTTXVIwFiJdGdQULuHKf1NS7fJACIQC+J33aui7xj2Aj5DfH
JGctEvrTspdBbl/IDNq8QeVXkA==
-----END CERTIFICATE-----
