Certificate:
    Data:
        Version: 3 (0x2)
        Serial Number: 4253 (0x109d)
        Signature Algorithm: ecdsa-with-SHA256
        Issuer: CN=sros2testCA
        Validity
            Not Before: Feb 13 07:20:59 2020 GMT
            Not After : Feb 10 07:20:59 2030 GMT
        Subject: CN=/performance_test5
        Subject Public Key Info:
            Public Key Algorithm: id-ecPublicKey
                Public-Key: (256 bit)
                pub:
                    04:2a:f0:e2:40:12:e9:36:e5:65:b5:f0:62:28:3b:
                    8e:35:11:91:8b:58:40:1a:f9:11:c4:34:63:fb:b8:
                    0e:f0:23:31:06:04:ba:31:84:e4:b5:52:7b:05:6a:
                    74:d4:36:22:d0:00:4a:6f:12:01:22:60:15:6b:56:
                    e0:cd:ff:1f:e3
                ASN1 OID: prime256v1
                NIST CURVE: P-256
        X509v3 extensions:
            X509v3 Basic Constraints: 
                CA:FALSE
    Signature Algorithm: ecdsa-with-SHA256
         30:45:02:21:00:ca:a0:5a:fe:d3:1d:c0:c0:46:74:c7:7d:97:
         a3:84:00:a9:2c:d0:e6:85:76:f3:72:4d:e5:88:83:24:f5:68:
         a3:02:20:0c:fa:f8:fb:f9:7c:17:35:d9:7c:53:a5:a8:b1:2a:
         44:b1:bb:01:f2:d9:bd:34:76:db:fc:fc:4a:e6:a0:e8:9d
-----BEGIN CERTIFICATE-----
MIIBLzCB1qADAgECAgIQnTAKBggqhkjOPQQDAjAWMRQwEgYDVQQDDAtzcm9zMnRl
c3RDQTAeFw0yMDAyMTMwNzIwNTlaFw0zMDAyMTAwNzIwNTlaMB0xGzAZBgNVBAMM
Ei9wZXJmb3JtYW5jZV90ZXN0NTBZMBMGByqGSM49AgEGCCqGSM49AwEHA0IABCrw
4kAS6TblZbXwYig7jjURkYtYQBr5EcQ0Y/u4DvAjMQYEujGE5LVSewVqdNQ2ItAA
Sm8SASJgFWtW4M3/H+OjDTALMAkGA1UdEwQCMAAwCgYIKoZIzj0EAwIDSAAwRQIh
AMqgWv7THcDARnTHfZejhACpLNDmhXbzck3liIMk9WijAiAM+vj7+XwXNdl8U6Wo
sSpEsbsB8tm9NHbb/PxK5qDonQ==
-----END CERTIFICATE-----
