Certificate:
    Data:
        Version: 3 (0x2)
        Serial Number: 4254 (0x109e)
        Signature Algorithm: ecdsa-with-SHA256
        Issuer: CN=sros2testCA
        Validity
            Not Before: Feb 13 07:26:16 2020 GMT
            Not After : Feb 10 07:26:16 2030 GMT
        Subject: CN=/performance_test0
        Subject Public Key Info:
            Public Key Algorithm: id-ecPublicKey
                Public-Key: (256 bit)
                pub:
                    04:04:95:3c:90:18:46:04:9e:17:66:b6:86:ff:67:
                    e7:8a:81:51:ca:36:ee:9c:35:f1:65:a4:31:46:dc:
                    4c:8f:13:20:08:5c:14:93:ad:e9:89:20:7c:c3:70:
                    14:da:3d:d8:89:8b:9b:d7:2b:f9:73:d3:aa:62:bc:
                    b2:9b:71:79:a3
                ASN1 OID: prime256v1
                NIST CURVE: P-256
        X509v3 extensions:
            X509v3 Basic Constraints: 
                CA:FALSE
    Signature Algorithm: ecdsa-with-SHA256
         30:44:02:20:74:66:55:11:2b:b1:cf:6a:da:91:63:48:59:fc:
         a6:89:58:86:dc:14:4f:0d:ac:f7:14:92:15:79:37:d6:5f:96:
         02:20:79:70:fb:35:7c:e5:9b:66:57:c9:ad:43:8b:5d:c3:23:
         e5:0a:45:3f:b9:8c:cb:e2:66:b5:24:47:5a:10:73:81
-----BEGIN CERTIFICATE-----
MIIBLjCB1qADAgECAgIQnjAKBggqhkjOPQQDAjAWMRQwEgYDVQQDDAtzcm9zMnRl
c3RDQTAeFw0yMDAyMTMwNzI2MTZaFw0zMDAyMTAwNzI2MTZaMB0xGzAZBgNVBAMM
Ei9wZXJmb3JtYW5jZV90ZXN0MDBZMBMGByqGSM49AgEGCCqGSM49AwEHA0IABASV
PJAYRgSeF2a2hv9n54qBUco27pw18WWkMUbcTI8TIAhcFJOt6YkgfMNwFNo92ImL
m9cr+XPTqmK8sptxeaOjDTALMAkGA1UdEwQCMAAwCgYIKoZIzj0EAwIDRwAwRAIg
dGZVESuxz2rakWNIWfymiViG3BRPDaz3FJIVeTfWX5YCIHlw+zV85ZtmV8mtQ4td
wyPlCkU/uYzL4ma1JEdaEHOB
-----END CERTIFICATE-----
