Certificate:
    Data:
        Version: 3 (0x2)
        Serial Number: 4255 (0x109f)
        Signature Algorithm: ecdsa-with-SHA256
        Issuer: CN=sros2testCA
        Validity
            Not Before: Feb 13 07:26:25 2020 GMT
            Not After : Feb 10 07:26:25 2030 GMT
        Subject: CN=/performance_test1
        Subject Public Key Info:
            Public Key Algorithm: id-ecPublicKey
                Public-Key: (256 bit)
                pub:
                    04:f9:3c:73:dd:9f:f7:70:a9:0d:d3:37:7f:a2:52:
                    95:8a:ca:46:56:60:09:b4:d9:8c:ea:07:ef:82:22:
                    d5:63:df:1a:38:12:2e:f5:1e:1e:fb:ea:01:a1:b8:
                    1e:28:93:54:e2:af:5a:08:2a:df:6f:f4:27:5c:d8:
                    3e:2d:f5:f6:9c
                ASN1 OID: prime256v1
                NIST CURVE: P-256
        X509v3 extensions:
            X509v3 Basic Constraints: 
                CA:FALSE
    Signature Algorithm: ecdsa-with-SHA256
         30:45:02:21:00:d3:6f:50:ad:48:fd:ce:ac:0c:a5:d0:e0:6a:
         c2:b0:b8:aa:4b:1b:32:53:58:65:11:5f:60:e8:2e:49:eb:d4:
         03:02:20:5a:b7:0e:71:81:73:c9:60:3a:9b:b3:d5:7a:8e:f2:
         63:83:3e:e6:0c:96:9a:d4:1c:35:fe:4b:16:46:6c:bf:e7
-----BEGIN CERTIFICATE-----
MIIBLzCB1qADAgECAgIQnzAKBggqhkjOPQQDAjAWMRQwEgYDVQQDDAtzcm9zMnRl
c3RDQTAeFw0yMDAyMTMwNzI2MjVaFw0zMDAyMTAwNzI2MjVaMB0xGzAZBgNVBAMM
Ei9wZXJmb3JtYW5jZV90ZXN0MTBZMBMGByqGSM49AgEGCCqGSM49AwEHA0IABPk8
c92f93CpDdM3f6JSlYrKRlZgCbTZjOoH74Ii1WPfGjgSLvUeHvvqAaG4HiiTVOKv
Wggq32/0J1zYPi319pyjDTALMAkGA1UdEwQCMAAwCgYIKoZIzj0EAwIDSAAwRQIh
ANNvUK1I/c6sDKXQ4GrCsLiqSxsyU1hlEV9g6C5J69QDAiBatw5xgXPJYDqbs9V6
jvJjgz7mDJaa1Bw1/ksWRmy/5w==
-----END CERTIFICATE-----
