Certificate:
    Data:
        Version: 3 (0x2)
        Serial Number: 4256 (0x10a0)
        Signature Algorithm: ecdsa-with-SHA256
        Issuer: CN=sros2testCA
        Validity
            Not Before: Feb 13 07:26:36 2020 GMT
            Not After : Feb 10 07:26:36 2030 GMT
        Subject: CN=/performance_test2
        Subject Public Key Info:
            Public Key Algorithm: id-ecPublicKey
                Public-Key: (256 bit)
                pub:
                    04:ef:a5:0b:13:e3:f1:f0:02:6b:e8:c1:24:f0:39:
                    d1:41:36:4a:08:25:12:29:86:4d:10:e0:68:22:a5:
                    6b:ae:84:01:f2:e9:27:8d:19:4e:14:45:e6:2a:42:
                    e0:ea:16:0f:90:f9:ad:2b:ed:42:8c:f1:8d:91:82:
                    51:c7:6f:13:29
                ASN1 OID: prime256v1
                NIST CURVE: P-256
        X509v3 extensions:
            X509v3 Basic Constraints: 
                CA:FALSE
    Signature Algorithm: ecdsa-with-SHA256
         30:45:02:21:00:d0:10:10:f5:69:4e:b9:cd:56:ad:ea:ff:44:
         02:b7:52:1e:70:dd:17:03:ee:a1:4c:fc:77:ab:4f:db:76:d0:
         ac:02:20:7b:e3:d1:05:5f:ce:cf:c1:13:a7:75:f0:84:fb:fa:
         c0:41:c2:21:3e:42:18:7b:22:65:04:75:e3:8e:e2:83:08
-----BEGIN CERTIFICATE-----
MIIBLzCB1qADAgECAgIQoDAKBggqhkjOPQQDAjAWMRQwEgYDVQQDDAtzcm9zMnRl
c3RDQTAeFw0yMDAyMTMwNzI2MzZaFw0zMDAyMTAwNzI2MzZaMB0xGzAZBgNVBAMM
Ei9wZXJmb3JtYW5jZV90ZXN0MjBZMBMGByqGSM49AgEGCCqGSM49AwEHA0IABO+l
CxPj8fACa+jBJPA50UE2SgglEimGTRDgaCKla66EAfLpJ40ZThRF5ipC4OoWD5D5
rSvtQozxjZGCUcdvEymjDTALMAkGA1UdEwQCMAAwCgYIKoZIzj0EAwIDSAAwRQIh
ANAQEPVpTrnNVq3q/0QCt1IecN0XA+6hTPx3q0/bdtCsAiB749EFX87PwROndfCE
+/rAQcIhPkIYeyJlBHXjjuKDCA==
-----END CERTIFICATE-----
