Certificate:
    Data:
        Version: 3 (0x2)
        Serial Number: 4257 (0x10a1)
        Signature Algorithm: ecdsa-with-SHA256
        Issuer: CN=sros2testCA
        Validity
            Not Before: Feb 13 07:26:46 2020 GMT
            Not After : Feb 10 07:26:46 2030 GMT
        Subject: CN=/performance_test3
        Subject Public Key Info:
            Public Key Algorithm: id-ecPublicKey
                Public-Key: (256 bit)
                pub:
                    04:ad:49:6f:30:5b:95:23:9f:f4:49:93:c8:ee:05:
                    da:41:49:68:e3:57:ae:12:c0:f2:d0:a2:cb:77:4f:
                    23:3a:86:7d:bf:70:35:9b:5e:92:05:7e:76:fa:2c:
                    48:45:7d:e5:26:d3:2b:04:d0:e9:76:51:53:ce:58:
                    39:ed:c7:6b:6e
                ASN1 OID: prime256v1
                NIST CURVE: P-256
        X509v3 extensions:
            X509v3 Basic Constraints: 
                CA:FALSE
    Signature Algorithm: ecdsa-with-SHA256
         30:44:02:20:29:59:31:77:8b:22:84:ea:76:97:d1:28:3e:1c:
         00:1d:d7:a6:3c:6c:bf:36:8b:41:71:60:6f:aa:16:d4:5a:1d:
         02:20:78:d4:b8:99:27:d1:6e:0b:8e:a1:af:48:bb:d8:0b:01:
         b7:38:6b:60:df:8c:91:c5:06:c1:28:1d:00:22:03:22
-----BEGIN CERTIFICATE-----
MIIBLjCB1qADAgECAgIQoTAKBggqhkjOPQQDAjAWMRQwEgYDVQQDDAtzcm9zMnRl
c3RDQTAeFw0yMDAyMTMwNzI2NDZaFw0zMDAyMTAwNzI2NDZaMB0xGzAZBgNVBAMM
Ei9wZXJmb3JtYW5jZV90ZXN0MzBZMBMGByqGSM49AgEGCCqGSM49AwEHA0IABK1J
bzBblSOf9EmTyO4F2kFJaONXrhLA8tCiy3dPIzqGfb9wNZtekgV+dvosSEV95SbT
KwTQ6XZRU85YOe3Ha26jDTALMAkGA1UdEwQCMAAwCgYIKoZIzj0EAwIDRwAwRAIg
KVkxd4sihOp2l9EoPhwAHdemPGy/NotBcWBvqhbUWh0CIHjUuJkn0W4LjqGvSLvY
CwG3OGtg34yRxQbBKB0AIgMi
-----END CERTIFICATE-----
