Certificate:
    Data:
        Version: 3 (0x2)
        Serial Number: 4258 (0x10a2)
        Signature Algorithm: ecdsa-with-SHA256
        Issuer: CN=sros2testCA
        Validity
            Not Before: Feb 13 07:26:56 2020 GMT
            Not After : Feb 10 07:26:56 2030 GMT
        Subject: CN=/performance_test4
        Subject Public Key Info:
            Public Key Algorithm: id-ecPublicKey
                Public-Key: (256 bit)
                pub:
                    04:61:ac:9b:73:c1:f1:9d:67:17:a7:a1:a6:8f:f6:
                    a2:ed:16:6a:73:94:a8:7a:60:ec:d5:77:2f:cd:0c:
                    43:80:55:71:fb:40:c2:03:50:11:49:fe:da:74:44:
                    3b:74:c4:0d:9c:a1:37:98:3a:e8:b6:1f:17:2e:24:
                    f1:7d:1a:bb:c2
                ASN1 OID: prime256v1
                NIST CURVE: P-256
        X509v3 extensions:
            X509v3 Basic Constraints: 
                CA:FALSE
    Signature Algorithm: ecdsa-with-SHA256
         30:45:02:21:00:c9:68:83:bb:33:09:a6:8f:98:e7:b5:09:e5:
         fe:c8:c7:d5:b6:7c:4e:5d:53:f6:c6:12:de:c4:e5:3b:37:c3:
         e8:02:20:62:b5:76:a3:aa:de:c4:10:2d:88:1a:54:d6:73:c1:
         99:7a:29:3c:8c:1f:e7:23:2d:95:a8:08:d1:b0:9a:ab:d4
-----BEGIN CERTIFICATE-----
MIIBLzCB1qADAgECAgIQojAKBggqhkjOPQQDAjAWMRQwEgYDVQQDDAtzcm9zMnRl
c3RDQTAeFw0yMDAyMTMwNzI2NTZaFw0zMDAyMTAwNzI2NTZaMB0xGzAZBgNVBAMM
Ei9wZXJmb3JtYW5jZV90ZXN0NDBZMBMGByqGSM49AgEGCCqGSM49AwEHA0IABGGs
m3PB8Z1nF6ehpo/2ou0WanOUqHpg7NV3L80MQ4BVcftAwgNQEUn+2nREO3TEDZyh
N5g66LYfFy4k8X0au8KjDTALMAkGA1UdEwQCMAAwCgYIKoZIzj0EAwIDSAAwRQIh
AMlog7szCaaPmOe1CeX+yMfVtnxOXVP2xhLexOU7N8PoAiBitXajqt7EEC2IGlTW
c8GZeik8jB/nIy2VqAjRsJqr1A==
-----END CERTIFICATE-----
