Certificate:
    Data:
        Version: 3 (0x2)
        Serial Number: 4259 (0x10a3)
        Signature Algorithm: ecdsa-with-SHA256
        Issuer: CN=sros2testCA
        Validity
            Not Before: Feb 13 07:27:06 2020 GMT
            Not After : Feb 10 07:27:06 2030 GMT
        Subject: CN=/performance_test5
        Subject Public Key Info:
            Public Key Algorithm: id-ecPublicKey
                Public-Key: (256 bit)
                pub:
                    04:6c:ca:21:a1:8e:67:ad:39:0c:90:9d:48:e7:42:
                    1c:7e:10:f4:c7:a6:01:b6:93:ef:42:4a:4c:a8:a0:
                    76:d7:a1:25:59:c3:16:7c:d2:03:13:c4:39:e4:3e:
                    4f:db:67:80:db:fd:ea:11:4c:4a:d0:49:e1:47:dc:
                    2e:73:c3:8d:e5
                ASN1 OID: prime256v1
                NIST CURVE: P-256
        X509v3 extensions:
            X509v3 Basic Constraints: 
                CA:FALSE
    Signature Algorithm: ecdsa-with-SHA256
         30:44:02:20:64:47:24:64:e4:02:f8:2a:8b:d6:b5:5f:e2:3f:
         6b:6e:9f:9e:27:c0:b5:66:40:03:00:af:dd:a2:b0:67:b3:79:
         02:20:59:a5:c7:64:8f:4e:e6:ff:ab:b2:e3:c3:a7:52:c1:cc:
         25:8e:d5:57:40:51:f5:c6:32:45:18:98:27:b1:76:78
-----BEGIN CERTIFICATE-----
MIIBLjCB1qADAgECAgIQozAKBggqhkjOPQQDAjAWMRQwEgYDVQQDDAtzcm9zMnRl
c3RDQTAeFw0yMDAyMTMwNzI3MDZaFw0zMDAyMTAwNzI3MDZaMB0xGzAZBgNVBAMM
Ei9wZXJmb3JtYW5jZV90ZXN0NTBZMBMGByqGSM49AgEGCCqGSM49AwEHA0IABGzK
IaGOZ605DJCdSOdCHH4Q9MemAbaT70JKTKigdtehJVnDFnzSAxPEOeQ+T9tngNv9
6hFMStBJ4UfcLnPDjeWjDTALMAkGA1UdEwQCMAAwCgYIKoZIzj0EAwIDRwAwRAIg
ZEckZOQC+CqL1rVf4j9rbp+eJ8C1ZkADAK/dorBns3kCIFmlx2SPTub/q7Ljw6dS
wcwljtVXQFH1xjJFGJgnsXZ4
-----END CERTIFICATE-----
