Certificate:
    Data:
        Version: 3 (0x2)
        Serial Number: 4260 (0x10a4)
        Signature Algorithm: ecdsa-with-SHA256
        Issuer: CN=sros2testCA
        Validity
            Not Before: Feb 14 05:37:10 2020 GMT
            Not After : Feb 11 05:37:10 2030 GMT
        Subject: CN=/sensor_msgs_image_tmp0
        Subject Public Key Info:
            Public Key Algorithm: id-ecPublicKey
                Public-Key: (256 bit)
                pub:
                    04:f3:f5:a4:34:7f:db:eb:77:ce:5e:bb:9e:8f:30:
                    72:8e:ee:5d:53:7a:2b:1d:b8:53:e0:2d:0f:1b:3d:
                    99:dd:f2:bf:d9:6b:71:e3:d3:b3:6b:07:50:2c:23:
                    3c:0b:ea:aa:62:2d:60:dc:23:df:1e:15:d9:17:b2:
                    fd:eb:43:e0:b9
                ASN1 OID: prime256v1
                NIST CURVE: P-256
        X509v3 extensions:
            X509v3 Basic Constraints: 
                CA:FALSE
    Signature Algorithm: ecdsa-with-SHA256
         30:44:02:20:52:52:d6:43:aa:ca:21:3e:29:bb:a9:97:82:c4:
         71:30:23:ee:56:90:09:fb:8c:78:99:78:d5:d4:e8:d1:fd:85:
         02:20:01:02:01:71:74:ac:9d:17:7b:35:ee:63:a4:28:6b:9d:
         66:59:d6:6b:ac:f6:78:e6:02:09:df:e5:48:df:3e:5a
-----BEGIN CERTIFICATE-----
MIIBMzCB26ADAgECAgIQpDAKBggqhkjOPQQDAjAWMRQwEgYDVQQDDAtzcm9zMnRl
c3RDQTAeFw0yMDAyMTQwNTM3MTBaFw0zMDAyMTEwNTM3MTBaMCIxIDAeBgNVBAMM
Fy9zZW5zb3JfbXNnc19pbWFnZV90bXAwMFkwEwYHKoZIzj0CAQYIKoZIzj0DAQcD
QgAE8/WkNH/b63fOXruejzByju5dU3orHbhT4C0PGz2Z3fK/2Wtx49OzawdQLCM8
C+qqYi1g3CPfHhXZF7L960PguaMNMAswCQYDVR0TBAIwADAKBggqhkjOPQQDAgNH
ADBEAiBSUtZDqsohPim7qZeCxHEwI+5WkAn7jHiZeNXU6NH9hQIgAQIBcXSsnRd7
Ne5jpChrnWZZ1mus9njmAgnf5UjfPlo=
-----END CERTIFICATE-----
