Certificate:
    Data:
        Version: 3 (0x2)
        Serial Number: 4261 (0x10a5)
        Signature Algorithm: ecdsa-with-SHA256
        Issuer: CN=sros2testCA
        Validity
            Not Before: Feb 14 05:39:57 2020 GMT
            Not After : Feb 11 05:39:57 2030 GMT
        Subject: CN=/sensor_msgs_image_tmp0
        Subject Public Key Info:
            Public Key Algorithm: id-ecPublicKey
                Public-Key: (256 bit)
                pub:
                    04:f0:09:71:cb:f5:87:82:2b:b9:14:38:27:06:32:
                    a4:b4:d7:9a:85:6a:a0:4f:1e:fd:80:78:52:e9:65:
                    36:2e:bf:45:32:15:8b:bb:b2:25:67:e7:b8:97:d2:
                    cc:0d:09:76:c1:7a:d4:24:1d:58:aa:64:c7:da:30:
                    1c:56:63:fd:8b
                ASN1 OID: prime256v1
                NIST CURVE: P-256
        X509v3 extensions:
            X509v3 Basic Constraints: 
                CA:FALSE
    Signature Algorithm: ecdsa-with-SHA256
         30:46:02:21:00:f1:81:d0:93:44:1c:62:50:80:98:a8:95:15:
         19:75:fe:4e:d5:69:7e:e1:3f:35:7b:32:72:be:bf:01:e0:0f:
         0d:02:21:00:d7:23:2b:c2:51:bb:08:18:5d:de:c2:1d:a4:49:
         c5:41:51:f3:2a:67:6c:d2:b3:3e:13:bd:21:ee:f1:4a:99:73
-----BEGIN CERTIFICATE-----
MIIBNTCB26ADAgECAgIQpTAKBggqhkjOPQQDAjAWMRQwEgYDVQQDDAtzcm9zMnRl
c3RDQTAeFw0yMDAyMTQwNTM5NTdaFw0zMDAyMTEwNTM5NTdaMCIxIDAeBgNVBAMM
Fy9zZW5zb3JfbXNnc19pbWFnZV90bXAwMFkwEwYHKoZIzj0CAQYIKoZIzj0DAQcD
QgAE8Alxy/WHgiu5FDgnBjKktNeahWqgTx79gHhS6WU2Lr9FMhWLu7IlZ+e4l9LM
DQl2wXrUJB1YqmTH2jAcVmP9i6MNMAswCQYDVR0TBAIwADAKBggqhkjOPQQDAgNJ
ADBGAiEA8YHQk0QcYlCAmKiVFRl1/k7VaX7hPzV7MnK+vwHgDw0CIQDXIyvCUbsI
GF3ewh2kScVBUfMqZ2zSsz4TvSHu8UqZcw==
-----END CERTIFICATE-----
