Certificate:
    Data:
        Version: 3 (0x2)
        Serial Number: 4262 (0x10a6)
        Signature Algorithm: ecdsa-with-SHA256
        Issuer: CN=sros2testCA
        Validity
            Not Before: Feb 14 05:43:07 2020 GMT
            Not After : Feb 11 05:43:07 2030 GMT
        Subject: CN=/sensor_msgs_image_tmp0
        Subject Public Key Info:
            Public Key Algorithm: id-ecPublicKey
                Public-Key: (256 bit)
                pub:
                    04:c0:46:5d:e7:6c:6e:cd:ec:a3:d9:25:38:07:77:
                    18:52:a9:e6:bb:66:c3:cb:f0:4d:1d:4e:93:b2:cf:
                    86:10:ec:6f:f2:d2:38:41:dd:d7:df:8c:fa:c3:85:
                    32:e2:43:72:d3:83:c0:ce:46:34:d3:18:dc:c8:54:
                    d0:9e:1d:fe:df
                ASN1 OID: prime256v1
                NIST CURVE: P-256
        X509v3 extensions:
            X509v3 Basic Constraints: 
                CA:FALSE
    Signature Algorithm: ecdsa-with-SHA256
         30:45:02:21:00:f2:62:e2:6e:7a:5d:95:69:c4:ff:c3:da:79:
         46:84:6f:b3:de:b3:82:ea:58:e2:4f:d1:05:70:15:86:dc:0a:
         61:02:20:73:1c:b1:5c:34:0d:5e:c9:73:cc:fe:a4:dd:24:a3:
         ec:49:8a:7f:df:d0:ca:10:2f:72:36:07:d7:dc:bb:c9:ea
-----BEGIN CERTIFICATE-----
MIIBNDCB26ADAgECAgIQpjAKBggqhkjOPQQDAjAWMRQwEgYDVQQDDAtzcm9zMnRl
c3RDQTAeFw0yMDAyMTQwNTQzMDdaFw0zMDAyMTEwNTQzMDdaMCIxIDAeBgNVBAMM
Fy9zZW5zb3JfbXNnc19pbWFnZV90bXAwMFkwEwYHKoZIzj0CAQYIKoZIzj0DAQcD
QgAEwEZd52xuzeyj2SU4B3cYUqnmu2bDy/BNHU6Tss+GEOxv8tI4Qd3X34z6w4Uy
4kNy04PAzkY00xjcyFTQnh3+36MNMAswCQYDVR0TBAIwADAKBggqhkjOPQQDAgNI
ADBFAiEA8mLibnpdlWnE/8PaeUaEb7Pes4LqWOJP0QVwFYbcCmECIHMcsVw0DV7J
c8z+pN0ko+xJin/f0MoQL3I2B9fcu8nq
-----END CERTIFICATE-----
