Certificate:
    Data:
        Version: 3 (0x2)
        Serial Number: 4263 (0x10a7)
        Signature Algorithm: ecdsa-with-SHA256
        Issuer: CN=sros2testCA
        Validity
            Not Before: Feb 14 05:44:39 2020 GMT
            Not After : Feb 11 05:44:39 2030 GMT
        Subject: CN=/sensor_msgs_image_tmp0
        Subject Public Key Info:
            Public Key Algorithm: id-ecPublicKey
                Public-Key: (256 bit)
                pub:
                    04:ee:09:1e:17:fb:c6:be:ca:de:13:a8:0c:db:70:
                    cd:6a:58:bb:b2:a9:fa:a5:36:de:3f:01:5d:29:4d:
                    6d:d3:12:ad:df:b8:53:88:45:85:a5:31:9b:ae:fb:
                    af:e8:93:36:62:74:25:b3:5f:53:07:1a:45:85:de:
                    a0:6a:b8:63:e9
                ASN1 OID: prime256v1
                NIST CURVE: P-256
        X509v3 extensions:
            X509v3 Basic Constraints: 
                CA:FALSE
    Signature Algorithm: ecdsa-with-SHA256
         30:46:02:21:00:bc:48:3b:7b:c5:ef:e3:7e:eb:48:90:aa:b8:
         36:89:0d:7e:05:f8:e5:9b:55:9b:16:22:13:94:e9:94:60:f8:
         28:02:21:00:cf:0a:7e:0f:5e:d8:30:5b:44:aa:12:23:ee:ab:
         76:7b:f8:94:39:aa:01:59:d1:ab:f8:cf:74:91:35:0a:d4:25
-----BEGIN CERTIFICATE-----
MIIBNTCB26ADAgECAgIQpzAKBggqhkjOPQQDAjAWMRQwEgYDVQQDDAtzcm9zMnRl
c3RDQTAeFw0yMDAyMTQwNTQ0MzlaFw0zMDAyMTEwNTQ0MzlaMCIxIDAeBgNVBAMM
Fy9zZW5zb3JfbXNnc19pbWFnZV90bXAwMFkwEwYHKoZIzj0CAQYIKoZIzj0DAQcD
QgAE7gkeF/vGvsreE6gM23DNali7sqn6pTbePwFdKU1t0xKt37hTiEWFpTGbrvuv
6JM2YnQls19TBxpFhd6garhj6aMNMAswCQYDVR0TBAIwADAKBggqhkjOPQQDAgNJ
ADBGAiEAvEg7e8Xv437rSJCquDaJDX4F+OWbVZsWIhOU6ZRg+CgCIQDPCn4PXtgw
W0SqEiPuq3Z7+JQ5qgFZ0av4z3SRNQrUJQ==
-----END CERTIFICATE-----
