Certificate:
    Data:
        Version: 3 (0x2)
        Serial Number: 4264 (0x10a8)
        Signature Algorithm: ecdsa-with-SHA256
        Issuer: CN=sros2testCA
        Validity
            Not Before: Feb 14 06:28:19 2020 GMT
            Not After : Feb 11 06:28:19 2030 GMT
        Subject: CN=/sensor_msgs_image_tmp0
        Subject Public Key Info:
            Public Key Algorithm: id-ecPublicKey
                Public-Key: (256 bit)
                pub:
                    04:37:0d:af:94:56:4f:54:33:78:c9:32:34:3f:48:
                    7d:85:86:4d:07:e1:f2:74:ed:62:6b:76:7c:e5:b5:
                    9b:50:25:c7:2b:1a:b0:e5:20:34:32:b2:a2:76:f8:
                    f9:0b:6f:6b:6e:f2:10:cc:ae:e7:86:bb:a9:43:9f:
                    fe:07:4b:14:49
                ASN1 OID: prime256v1
                NIST CURVE: P-256
        X509v3 extensions:
            X509v3 Basic Constraints: 
                CA:FALSE
    Signature Algorithm: ecdsa-with-SHA256
         30:45:02:21:00:b3:bd:31:f6:c4:40:da:3b:a7:83:7b:13:18:
         61:c7:c8:53:c8:c5:37:42:3d:e9:95:76:e8:fa:0f:d0:6d:88:
         8b:02:20:38:36:4d:34:65:66:d3:af:65:e7:8b:50:00:c7:34:
         18:f9:87:6d:37:73:04:d8:51:13:15:a0:65:51:57:fe:23
-----BEGIN CERTIFICATE-----
MIIBNDCB26ADAgECAgIQqDAKBggqhkjOPQQDAjAWMRQwEgYDVQQDDAtzcm9zMnRl
c3RDQTAeFw0yMDAyMTQwNjI4MTlaFw0zMDAyMTEwNjI4MTlaMCIxIDAeBgNVBAMM
Fy9zZW5zb3JfbXNnc19pbWFnZV90bXAwMFkwEwYHKoZIzj0CAQYIKoZIzj0DAQcD
QgAENw2vlFZPVDN4yTI0P0h9hYZNB+HydO1ia3Z85bWbUCXHKxqw5SA0MrKidvj5
C29rbvIQzK7nhrupQ5/+B0sUSaMNMAswCQYDVR0TBAIwADAKBggqhkjOPQQDAgNI
ADBFAiEAs70x9sRA2jung3sTGGHHyFPIxTdCPemVduj6D9BtiIsCIDg2TTRlZtOv
ZeeLUADHNBj5h203cwTYURMVoGVRV/4j
-----END CERTIFICATE-----
