Certificate:
    Data:
        Version: 3 (0x2)
        Serial Number: 4265 (0x10a9)
        Signature Algorithm: ecdsa-with-SHA256
        Issuer: CN=sros2testCA
        Validity
            Not Before: Feb 14 06:33:01 2020 GMT
            Not After : Feb 11 06:33:01 2030 GMT
        Subject: CN=/sensor_msgs_image_tmp0
        Subject Public Key Info:
            Public Key Algorithm: id-ecPublicKey
                Public-Key: (256 bit)
                pub:
                    04:39:cd:0e:18:03:c3:b1:f9:86:ce:ec:2f:63:7b:
                    df:50:cf:9f:27:ef:df:e9:e4:48:94:7a:55:0f:16:
                    3c:64:74:b1:90:e7:df:4b:40:03:3b:c1:af:4d:bd:
                    25:40:15:79:a4:f7:b2:29:45:7c:62:81:d8:e5:a0:
                    33:e1:f4:29:23
                ASN1 OID: prime256v1
                NIST CURVE: P-256
        X509v3 extensions:
            X509v3 Basic Constraints: 
                CA:FALSE
    Signature Algorithm: ecdsa-with-SHA256
         30:45:02:20:1a:46:e2:33:eb:79:29:e4:e8:ce:d4:db:a2:c0:
         12:1d:14:16:de:4b:a9:81:a2:cc:ff:e6:39:45:c0:37:06:5e:
         02:21:00:ec:fb:19:d2:d7:9d:a6:12:f6:7d:30:83:a9:c4:32:
         c8:f8:7f:3a:72:39:81:f6:bd:b0:e2:49:da:f0:b0:5b:fd
-----BEGIN CERTIFICATE-----
MIIBNDCB26ADAgECAgIQqTAKBggqhkjOPQQDAjAWMRQwEgYDVQQDDAtzcm9zMnRl
c3RDQTAeFw0yMDAyMTQwNjMzMDFaFw0zMDAyMTEwNjMzMDFaMCIxIDAeBgNVBAMM
Fy9zZW5zb3JfbXNnc19pbWFnZV90bXAwMFkwEwYHKoZIzj0CAQYIKoZIzj0DAQcD
QgAEOc0OGAPDsfmGzuwvY3vfUM+fJ+/f6eRIlHpVDxY8ZHSxkOffS0ADO8GvTb0l
QBV5pPeyKUV8YoHY5aAz4fQpI6MNMAswCQYDVR0TBAIwADAKBggqhkjOPQQDAgNI
ADBFAiAaRuIz63kp5OjO1NuiwBIdFBbeS6mBosz/5jlFwDcGXgIhAOz7GdLXnaYS
9n0wg6nEMsj4fzpyOYH2vbDiSdrwsFv9
-----END CERTIFICATE-----
