Certificate:
    Data:
        Version: 3 (0x2)
        Serial Number: 4266 (0x10aa)
        Signature Algorithm: ecdsa-with-SHA256
        Issuer: CN=sros2testCA
        Validity
            Not Before: Aug 12 08:58:43 2020 GMT
            Not After : Aug 10 08:58:43 2030 GMT
        Subject: CN=/colonel
        Subject Public Key Info:
            Public Key Algorithm: id-ecPublicKey
                Public-Key: (256 bit)
                pub:
                    04:8f:4c:d4:c6:ae:35:2b:a2:27:5e:b8:a0:2f:9b:
                    26:67:60:a4:64:bf:34:2f:f6:48:ed:d0:b1:3c:38:
                    9f:c6:a3:e5:0f:59:71:1b:26:17:23:27:e8:a9:42:
                    83:35:09:b4:46:a8:de:a1:dd:77:1e:5f:e2:10:c6:
                    45:1c:08:02:55
                ASN1 OID: prime256v1
                NIST CURVE: P-256
        X509v3 extensions:
            X509v3 Basic Constraints: 
                CA:FALSE
    Signature Algorithm: ecdsa-with-SHA256
         30:46:02:21:00:91:57:60:77:67:08:f8:d3:92:13:55:de:86:
         fe:69:62:b5:b4:aa:72:1e:61:1b:a0:7c:5a:92:6c:25:5a:14:
         5e:02:21:00:a8:9e:c6:ea:ab:70:6f:b2:30:3d:27:42:8a:db:
         4a:10:42:e9:cc:31:7f:c8:74:c9:20:0c:75:c6:bb:b6:d9:a7
-----BEGIN CERTIFICATE-----
MIIBJjCBzKADAgECAgIQqjAKBggqhkjOPQQDAjAWMRQwEgYDVQQDDAtzcm9zMnRl
c3RDQTAeFw0yMDA4MTIwODU4NDNaFw0zMDA4MTAwODU4NDNaMBMxETAPBgNVBAMM
CC9jb2xvbmVsMFkwEwYHKoZIzj0CAQYIKoZIzj0DAQcDQgAEj0zUxq41K6InXrig
L5smZ2CkZL80L/ZI7dCxPDifxqPlD1lxGyYXIyfoqUKDNQm0Rqjeod13Hl/iEMZF
HAgCVaMNMAswCQYDVR0TBAIwADAKBggqhkjOPQQDAgNJADBGAiEAkVdgd2cI+NOS
E1Xehv5pYrW0qnIeYRugfFqSbCVaFF4CIQConsbqq3BvsjA9J0KK20oQQunMMX/I
dMkgDHXGu7bZpw==
-----END CERTIFICATE-----
