Certificate:
    Data:
        Version: 3 (0x2)
        Serial Number: 4267 (0x10ab)
        Signature Algorithm: ecdsa-with-SHA256
        Issuer: CN=sros2testCA
        Validity
            Not Before: Aug 13 05:52:19 2020 GMT
            Not After : Aug 11 05:52:19 2030 GMT
        Subject: CN=/hq
        Subject Public Key Info:
            Public Key Algorithm: id-ecPublicKey
                Public-Key: (256 bit)
                pub:
                    04:f2:b4:88:f5:0b:f4:98:6e:65:84:7a:57:a1:63:
                    1d:bf:13:3c:1c:6b:b1:c2:2b:2d:c2:82:64:56:c0:
                    a8:69:e6:cf:52:67:83:c2:4a:27:2b:31:e0:b3:15:
                    d5:06:dc:40:3e:b7:50:73:fb:b9:92:3b:39:85:21:
                    cb:a9:82:d8:f1
                ASN1 OID: prime256v1
                NIST CURVE: P-256
        X509v3 extensions:
            X509v3 Basic Constraints: 
                CA:FALSE
    Signature Algorithm: ecdsa-with-SHA256
         30:45:02:21:00:e3:d8:22:94:30:f8:30:ab:1c:20:60:cb:a4:
         5b:45:c9:e6:47:87:d6:32:41:5b:ea:74:ca:23:43:f2:f8:95:
         f1:02:20:75:34:9b:78:bb:59:ea:8d:c8:58:91:3c:eb:ca:b5:
         52:2a:93:f7:76:25:06:7b:ef:09:9d:76:28:42:a8:10:17
-----BEGIN CERTIFICATE-----
MIIBIDCBx6ADAgECAgIQqzAKBggqhkjOPQQDAjAWMRQwEgYDVQQDDAtzcm9zMnRl
c3RDQTAeFw0yMDA4MTMwNTUyMTlaFw0zMDA4MTEwNTUyMTlaMA4xDDAKBgNVBAMM
Ay9ocTBZMBMGByqGSM49AgEGCCqGSM49AwEHA0IABPK0iPUL9JhuZYR6V6FjHb8T
PBxrscIrLcKCZFbAqGnmz1Jng8JKJysx4LMV1QbcQD63UHP7uZI7OYUhy6mC2PGj
DTALMAkGA1UdEwQCMAAwCgYIKoZIzj0EAwIDSAAwRQIhAOPYIpQw+DCrHCBgy6Rb
RcnmR4fWMkFb6nTKI0Py+JXxAiB1NJt4u1nqjchYkTzryrVSKpP3diUGe+8JnXYo
QqgQFw==
-----END CERTIFICATE-----
